
../../x86_linux_64/lib/libboost_thread-gcc34-mt-1_34.so.1.34.0:     file format elf64-x86-64

Disassembly of section .init:

0000000000005b50 <_init>:
    5b50:	48 83 ec 08          	sub    $0x8,%rsp
    5b54:	e8 97 05 00 00       	callq  60f0 <_ZN5boost21thread_resource_errorC1Ev@plt+0x18>
    5b59:	e8 02 06 00 00       	callq  6160 <_ZN5boost21thread_resource_errorC1Ev@plt+0x88>
    5b5e:	e8 6d 43 00 00       	callq  9ed0 <_ZN5boost9xtime_getEPNS_5xtimeEi+0x40>
    5b63:	48 83 c4 08          	add    $0x8,%rsp
    5b67:	c3                   	retq   
Disassembly of section .plt:

0000000000005b68 <__cxa_end_catch@plt-0x10>:
    5b68:	ff 35 a2 67 10 00    	pushq  1075106(%rip)        # 10c310 <_GLOBAL_OFFSET_TABLE_+0x8>
    5b6e:	ff 25 a4 67 10 00    	jmpq   *1075108(%rip)        # 10c318 <_GLOBAL_OFFSET_TABLE_+0x10>
    5b74:	90                   	nop    
    5b75:	90                   	nop    
    5b76:	90                   	nop    
    5b77:	90                   	nop    

0000000000005b78 <__cxa_end_catch@plt>:
    5b78:	ff 25 a2 67 10 00    	jmpq   *1075106(%rip)        # 10c320 <_GLOBAL_OFFSET_TABLE_+0x18>
    5b7e:	68 00 00 00 00       	pushq  $0x0
    5b83:	e9 e0 ff ff ff       	jmpq   5b68 <_init+0x18>

0000000000005b88 <pthread_key_create@plt>:
    5b88:	ff 25 9a 67 10 00    	jmpq   *1075098(%rip)        # 10c328 <_GLOBAL_OFFSET_TABLE_+0x20>
    5b8e:	68 01 00 00 00       	pushq  $0x1
    5b93:	e9 d0 ff ff ff       	jmpq   5b68 <_init+0x18>

0000000000005b98 <pthread_self@plt>:
    5b98:	ff 25 92 67 10 00    	jmpq   *1075090(%rip)        # 10c330 <_GLOBAL_OFFSET_TABLE_+0x28>
    5b9e:	68 02 00 00 00       	pushq  $0x2
    5ba3:	e9 c0 ff ff ff       	jmpq   5b68 <_init+0x18>

0000000000005ba8 <pthread_cond_wait@plt>:
    5ba8:	ff 25 8a 67 10 00    	jmpq   *1075082(%rip)        # 10c338 <_GLOBAL_OFFSET_TABLE_+0x30>
    5bae:	68 03 00 00 00       	pushq  $0x3
    5bb3:	e9 b0 ff ff ff       	jmpq   5b68 <_init+0x18>

0000000000005bb8 <pthread_cond_timedwait@plt>:
    5bb8:	ff 25 82 67 10 00    	jmpq   *1075074(%rip)        # 10c340 <_GLOBAL_OFFSET_TABLE_+0x38>
    5bbe:	68 04 00 00 00       	pushq  $0x4
    5bc3:	e9 a0 ff ff ff       	jmpq   5b68 <_init+0x18>

0000000000005bc8 <_ZN52_GLOBAL__N_libs_thread_src_tss.cpp_CF4CBC2E_306052D716tss_data_dec_useERN5boost6detail6thread11scoped_lockINS0_5mutexEEE@plt>:
    5bc8:	ff 25 7a 67 10 00    	jmpq   *1075066(%rip)        # 10c348 <_GLOBAL_OFFSET_TABLE_+0x40>
    5bce:	68 05 00 00 00       	pushq  $0x5
    5bd3:	e9 90 ff ff ff       	jmpq   5b68 <_init+0x18>

0000000000005bd8 <_ZNSt6vectorIPvSaIS0_EE14_M_fill_insertEN9__gnu_cxx17__normal_iteratorIPS0_S2_EEmRKS0_@plt>:
    5bd8:	ff 25 72 67 10 00    	jmpq   *1075058(%rip)        # 10c350 <_GLOBAL_OFFSET_TABLE_+0x48>
    5bde:	68 06 00 00 00       	pushq  $0x6
    5be3:	e9 80 ff ff ff       	jmpq   5b68 <_init+0x18>

0000000000005be8 <pthread_mutex_destroy@plt>:
    5be8:	ff 25 6a 67 10 00    	jmpq   *1075050(%rip)        # 10c358 <_GLOBAL_OFFSET_TABLE_+0x50>
    5bee:	68 07 00 00 00       	pushq  $0x7
    5bf3:	e9 70 ff ff ff       	jmpq   5b68 <_init+0x18>

0000000000005bf8 <_ZNSt15_List_node_base6unhookEv@plt>:
    5bf8:	ff 25 62 67 10 00    	jmpq   *1075042(%rip)        # 10c360 <_GLOBAL_OFFSET_TABLE_+0x58>
    5bfe:	68 08 00 00 00       	pushq  $0x8
    5c03:	e9 60 ff ff ff       	jmpq   5b68 <_init+0x18>

0000000000005c08 <_ZN5boost5mutex7do_lockEv@plt>:
    5c08:	ff 25 5a 67 10 00    	jmpq   *1075034(%rip)        # 10c368 <_GLOBAL_OFFSET_TABLE_+0x60>
    5c0e:	68 09 00 00 00       	pushq  $0x9
    5c13:	e9 50 ff ff ff       	jmpq   5b68 <_init+0x18>

0000000000005c18 <_ZNSt8ios_base4InitC1Ev@plt>:
    5c18:	ff 25 52 67 10 00    	jmpq   *1075026(%rip)        # 10c370 <_GLOBAL_OFFSET_TABLE_+0x68>
    5c1e:	68 0a 00 00 00       	pushq  $0xa
    5c23:	e9 40 ff ff ff       	jmpq   5b68 <_init+0x18>

0000000000005c28 <_ZN5boost6threadD1Ev@plt>:
    5c28:	ff 25 4a 67 10 00    	jmpq   *1075018(%rip)        # 10c378 <_GLOBAL_OFFSET_TABLE_+0x70>
    5c2e:	68 0b 00 00 00       	pushq  $0xb
    5c33:	e9 30 ff ff ff       	jmpq   5b68 <_init+0x18>

0000000000005c38 <_ZNSt11logic_errorD2Ev@plt>:
    5c38:	ff 25 42 67 10 00    	jmpq   *1075010(%rip)        # 10c380 <_GLOBAL_OFFSET_TABLE_+0x78>
    5c3e:	68 0c 00 00 00       	pushq  $0xc
    5c43:	e9 20 ff ff ff       	jmpq   5b68 <_init+0x18>

0000000000005c48 <__cxa_free_exception@plt>:
    5c48:	ff 25 3a 67 10 00    	jmpq   *1075002(%rip)        # 10c388 <_GLOBAL_OFFSET_TABLE_+0x80>
    5c4e:	68 0d 00 00 00       	pushq  $0xd
    5c53:	e9 10 ff ff ff       	jmpq   5b68 <_init+0x18>

0000000000005c58 <_Znwm@plt>:
    5c58:	ff 25 32 67 10 00    	jmpq   *1074994(%rip)        # 10c390 <_GLOBAL_OFFSET_TABLE_+0x88>
    5c5e:	68 0e 00 00 00       	pushq  $0xe
    5c63:	e9 00 ff ff ff       	jmpq   5b68 <_init+0x18>

0000000000005c68 <_ZNK5boost6threadeqERKS0_@plt>:
    5c68:	ff 25 2a 67 10 00    	jmpq   *1074986(%rip)        # 10c398 <_GLOBAL_OFFSET_TABLE_+0x90>
    5c6e:	68 0f 00 00 00       	pushq  $0xf
    5c73:	e9 f0 fe ff ff       	jmpq   5b68 <_init+0x18>

0000000000005c78 <_ZSt6fill_nIN9__gnu_cxx17__normal_iteratorIPPvSt6vectorIS2_SaIS2_EEEEmS2_ET_S8_T0_RKT1_@plt>:
    5c78:	ff 25 22 67 10 00    	jmpq   *1074978(%rip)        # 10c3a0 <_GLOBAL_OFFSET_TABLE_+0x98>
    5c7e:	68 10 00 00 00       	pushq  $0x10
    5c83:	e9 e0 fe ff ff       	jmpq   5b68 <_init+0x18>

0000000000005c88 <pthread_detach@plt>:
    5c88:	ff 25 1a 67 10 00    	jmpq   *1074970(%rip)        # 10c3a8 <_GLOBAL_OFFSET_TABLE_+0xa0>
    5c8e:	68 11 00 00 00       	pushq  $0x11
    5c93:	e9 d0 fe ff ff       	jmpq   5b68 <_init+0x18>

0000000000005c98 <_ZNSt16invalid_argumentC1ERKSs@plt>:
    5c98:	ff 25 12 67 10 00    	jmpq   *1074962(%rip)        # 10c3b0 <_GLOBAL_OFFSET_TABLE_+0xa8>
    5c9e:	68 12 00 00 00       	pushq  $0x12
    5ca3:	e9 c0 fe ff ff       	jmpq   5b68 <_init+0x18>

0000000000005ca8 <_ZN5boost6thread4joinEv@plt>:
    5ca8:	ff 25 0a 67 10 00    	jmpq   *1074954(%rip)        # 10c3b8 <_GLOBAL_OFFSET_TABLE_+0xb0>
    5cae:	68 13 00 00 00       	pushq  $0x13
    5cb3:	e9 b0 fe ff ff       	jmpq   5b68 <_init+0x18>

0000000000005cb8 <pthread_mutexattr_init@plt>:
    5cb8:	ff 25 02 67 10 00    	jmpq   *1074946(%rip)        # 10c3c0 <_GLOBAL_OFFSET_TABLE_+0xb8>
    5cbe:	68 14 00 00 00       	pushq  $0x14
    5cc3:	e9 a0 fe ff ff       	jmpq   5b68 <_init+0x18>

0000000000005cc8 <_ZN5boost6detail14condition_impl10notify_allEv@plt>:
    5cc8:	ff 25 fa 66 10 00    	jmpq   *1074938(%rip)        # 10c3c8 <_GLOBAL_OFFSET_TABLE_+0xc0>
    5cce:	68 15 00 00 00       	pushq  $0x15
    5cd3:	e9 90 fe ff ff       	jmpq   5b68 <_init+0x18>

0000000000005cd8 <pthread_setspecific@plt>:
    5cd8:	ff 25 f2 66 10 00    	jmpq   *1074930(%rip)        # 10c3d0 <_GLOBAL_OFFSET_TABLE_+0xc8>
    5cde:	68 16 00 00 00       	pushq  $0x16
    5ce3:	e9 80 fe ff ff       	jmpq   5b68 <_init+0x18>

0000000000005ce8 <_ZN52_GLOBAL__N_libs_thread_src_tss.cpp_CF4CBC2E_306052D79get_slotsEb@plt>:
    5ce8:	ff 25 ea 66 10 00    	jmpq   *1074922(%rip)        # 10c3d8 <_GLOBAL_OFFSET_TABLE_+0xd0>
    5cee:	68 17 00 00 00       	pushq  $0x17
    5cf3:	e9 70 fe ff ff       	jmpq   5b68 <_init+0x18>

0000000000005cf8 <memmove@plt>:
    5cf8:	ff 25 e2 66 10 00    	jmpq   *1074914(%rip)        # 10c3e0 <_GLOBAL_OFFSET_TABLE_+0xd8>
    5cfe:	68 18 00 00 00       	pushq  $0x18
    5d03:	e9 60 fe ff ff       	jmpq   5b68 <_init+0x18>

0000000000005d08 <nanosleep@plt>:
    5d08:	ff 25 da 66 10 00    	jmpq   *1074906(%rip)        # 10c3e8 <_GLOBAL_OFFSET_TABLE_+0xe0>
    5d0e:	68 19 00 00 00       	pushq  $0x19
    5d13:	e9 50 fe ff ff       	jmpq   5b68 <_init+0x18>

0000000000005d18 <sched_yield@plt>:
    5d18:	ff 25 d2 66 10 00    	jmpq   *1074898(%rip)        # 10c3f0 <_GLOBAL_OFFSET_TABLE_+0xe8>
    5d1e:	68 1a 00 00 00       	pushq  $0x1a
    5d23:	e9 40 fe ff ff       	jmpq   5b68 <_init+0x18>

0000000000005d28 <_ZN5boost6detail14condition_implD1Ev@plt>:
    5d28:	ff 25 ca 66 10 00    	jmpq   *1074890(%rip)        # 10c3f8 <_GLOBAL_OFFSET_TABLE_+0xf0>
    5d2e:	68 1b 00 00 00       	pushq  $0x1b
    5d33:	e9 30 fe ff ff       	jmpq   5b68 <_init+0x18>

0000000000005d38 <_ZNK5boost9function0IvSaINS_13function_baseEEEclEv@plt>:
    5d38:	ff 25 c2 66 10 00    	jmpq   *1074882(%rip)        # 10c400 <_GLOBAL_OFFSET_TABLE_+0xf8>
    5d3e:	68 1c 00 00 00       	pushq  $0x1c
    5d43:	e9 20 fe ff ff       	jmpq   5b68 <_init+0x18>

0000000000005d48 <pthread_create@plt>:
    5d48:	ff 25 ba 66 10 00    	jmpq   *1074874(%rip)        # 10c408 <_GLOBAL_OFFSET_TABLE_+0x100>
    5d4e:	68 1d 00 00 00       	pushq  $0x1d
    5d53:	e9 10 fe ff ff       	jmpq   5b68 <_init+0x18>

0000000000005d58 <pthread_mutex_lock@plt>:
    5d58:	ff 25 b2 66 10 00    	jmpq   *1074866(%rip)        # 10c410 <_GLOBAL_OFFSET_TABLE_+0x108>
    5d5e:	68 1e 00 00 00       	pushq  $0x1e
    5d63:	e9 00 fe ff ff       	jmpq   5b68 <_init+0x18>

0000000000005d68 <_ZN5boost6detail14condition_impl7do_waitEP15pthread_mutex_t@plt>:
    5d68:	ff 25 aa 66 10 00    	jmpq   *1074858(%rip)        # 10c418 <_GLOBAL_OFFSET_TABLE_+0x110>
    5d6e:	68 1f 00 00 00       	pushq  $0x1f
    5d73:	e9 f0 fd ff ff       	jmpq   5b68 <_init+0x18>

0000000000005d78 <pthread_mutexattr_destroy@plt>:
    5d78:	ff 25 a2 66 10 00    	jmpq   *1074850(%rip)        # 10c420 <_GLOBAL_OFFSET_TABLE_+0x118>
    5d7e:	68 20 00 00 00       	pushq  $0x20
    5d83:	e9 e0 fd ff ff       	jmpq   5b68 <_init+0x18>

0000000000005d88 <pthread_mutex_trylock@plt>:
    5d88:	ff 25 9a 66 10 00    	jmpq   *1074842(%rip)        # 10c428 <_GLOBAL_OFFSET_TABLE_+0x120>
    5d8e:	68 21 00 00 00       	pushq  $0x21
    5d93:	e9 d0 fd ff ff       	jmpq   5b68 <_init+0x18>

0000000000005d98 <_ZN5boost16thread_exceptionC2Ei@plt>:
    5d98:	ff 25 92 66 10 00    	jmpq   *1074834(%rip)        # 10c430 <_GLOBAL_OFFSET_TABLE_+0x128>
    5d9e:	68 22 00 00 00       	pushq  $0x22
    5da3:	e9 c0 fd ff ff       	jmpq   5b68 <_init+0x18>

0000000000005da8 <pthread_once@plt>:
    5da8:	ff 25 8a 66 10 00    	jmpq   *1074826(%rip)        # 10c438 <_GLOBAL_OFFSET_TABLE_+0x130>
    5dae:	68 23 00 00 00       	pushq  $0x23
    5db3:	e9 b0 fd ff ff       	jmpq   5b68 <_init+0x18>

0000000000005db8 <_ZN5boost16thread_exceptionD2Ev@plt>:
    5db8:	ff 25 82 66 10 00    	jmpq   *1074818(%rip)        # 10c440 <_GLOBAL_OFFSET_TABLE_+0x138>
    5dbe:	68 24 00 00 00       	pushq  $0x24
    5dc3:	e9 a0 fd ff ff       	jmpq   5b68 <_init+0x18>

0000000000005dc8 <_ZN5boost9xtime_getEPNS_5xtimeEi@plt>:
    5dc8:	ff 25 7a 66 10 00    	jmpq   *1074810(%rip)        # 10c448 <_GLOBAL_OFFSET_TABLE_+0x140>
    5dce:	68 25 00 00 00       	pushq  $0x25
    5dd3:	e9 90 fd ff ff       	jmpq   5b68 <_init+0x18>

0000000000005dd8 <__cxa_allocate_exception@plt>:
    5dd8:	ff 25 72 66 10 00    	jmpq   *1074802(%rip)        # 10c450 <_GLOBAL_OFFSET_TABLE_+0x148>
    5dde:	68 26 00 00 00       	pushq  $0x26
    5de3:	e9 80 fd ff ff       	jmpq   5b68 <_init+0x18>

0000000000005de8 <_ZN5boost6threadC1ERKNS_9function0IvSaINS_13function_baseEEEE@plt>:
    5de8:	ff 25 6a 66 10 00    	jmpq   *1074794(%rip)        # 10c458 <_GLOBAL_OFFSET_TABLE_+0x150>
    5dee:	68 27 00 00 00       	pushq  $0x27
    5df3:	e9 70 fd ff ff       	jmpq   5b68 <_init+0x18>

0000000000005df8 <_ZN5boost6detail14condition_implC1Ev@plt>:
    5df8:	ff 25 62 66 10 00    	jmpq   *1074786(%rip)        # 10c460 <_GLOBAL_OFFSET_TABLE_+0x158>
    5dfe:	68 28 00 00 00       	pushq  $0x28
    5e03:	e9 60 fd ff ff       	jmpq   5b68 <_init+0x18>

0000000000005e08 <_ZNSs4_Rep10_M_destroyERKSaIcE@plt>:
    5e08:	ff 25 5a 66 10 00    	jmpq   *1074778(%rip)        # 10c468 <_GLOBAL_OFFSET_TABLE_+0x160>
    5e0e:	68 29 00 00 00       	pushq  $0x29
    5e13:	e9 50 fd ff ff       	jmpq   5b68 <_init+0x18>

0000000000005e18 <_ZNSt13runtime_errorC2ERKSs@plt>:
    5e18:	ff 25 52 66 10 00    	jmpq   *1074770(%rip)        # 10c470 <_GLOBAL_OFFSET_TABLE_+0x168>
    5e1e:	68 2a 00 00 00       	pushq  $0x2a
    5e23:	e9 40 fd ff ff       	jmpq   5b68 <_init+0x18>

0000000000005e28 <_ZN52_GLOBAL__N_libs_thread_src_tss.cpp_CF4CBC2E_306052D716tss_data_inc_useERN5boost6detail6thread11scoped_lockINS0_5mutexEEE@plt>:
    5e28:	ff 25 4a 66 10 00    	jmpq   *1074762(%rip)        # 10c478 <_GLOBAL_OFFSET_TABLE_+0x170>
    5e2e:	68 2b 00 00 00       	pushq  $0x2b
    5e33:	e9 30 fd ff ff       	jmpq   5b68 <_init+0x18>

0000000000005e38 <_ZN5boost5mutex9do_unlockERNS0_8cv_stateE@plt>:
    5e38:	ff 25 42 66 10 00    	jmpq   *1074754(%rip)        # 10c480 <_GLOBAL_OFFSET_TABLE_+0x178>
    5e3e:	68 2c 00 00 00       	pushq  $0x2c
    5e43:	e9 20 fd ff ff       	jmpq   5b68 <_init+0x18>

0000000000005e48 <_ZN5boost12thread_group10add_threadEPNS_6threadE@plt>:
    5e48:	ff 25 3a 66 10 00    	jmpq   *1074746(%rip)        # 10c488 <_GLOBAL_OFFSET_TABLE_+0x180>
    5e4e:	68 2d 00 00 00       	pushq  $0x2d
    5e53:	e9 10 fd ff ff       	jmpq   5b68 <_init+0x18>

0000000000005e58 <_ZN5boost5mutex7do_lockERNS0_8cv_stateE@plt>:
    5e58:	ff 25 32 66 10 00    	jmpq   *1074738(%rip)        # 10c490 <_GLOBAL_OFFSET_TABLE_+0x188>
    5e5e:	68 2e 00 00 00       	pushq  $0x2e
    5e63:	e9 00 fd ff ff       	jmpq   5b68 <_init+0x18>

0000000000005e68 <_ZNSsC1ERKSs@plt>:
    5e68:	ff 25 2a 66 10 00    	jmpq   *1074730(%rip)        # 10c498 <_GLOBAL_OFFSET_TABLE_+0x190>
    5e6e:	68 2f 00 00 00       	pushq  $0x2f
    5e73:	e9 f0 fc ff ff       	jmpq   5b68 <_init+0x18>

0000000000005e78 <pthread_equal@plt>:
    5e78:	ff 25 22 66 10 00    	jmpq   *1074722(%rip)        # 10c4a0 <_GLOBAL_OFFSET_TABLE_+0x198>
    5e7e:	68 30 00 00 00       	pushq  $0x30
    5e83:	e9 e0 fc ff ff       	jmpq   5b68 <_init+0x18>

0000000000005e88 <pthread_mutexattr_settype@plt>:
    5e88:	ff 25 1a 66 10 00    	jmpq   *1074714(%rip)        # 10c4a8 <_GLOBAL_OFFSET_TABLE_+0x1a0>
    5e8e:	68 31 00 00 00       	pushq  $0x31
    5e93:	e9 d0 fc ff ff       	jmpq   5b68 <_init+0x18>

0000000000005e98 <pthread_cond_signal@plt>:
    5e98:	ff 25 12 66 10 00    	jmpq   *1074706(%rip)        # 10c4b0 <_GLOBAL_OFFSET_TABLE_+0x1a8>
    5e9e:	68 32 00 00 00       	pushq  $0x32
    5ea3:	e9 c0 fc ff ff       	jmpq   5b68 <_init+0x18>

0000000000005ea8 <__cxa_begin_catch@plt>:
    5ea8:	ff 25 0a 66 10 00    	jmpq   *1074698(%rip)        # 10c4b8 <_GLOBAL_OFFSET_TABLE_+0x1b0>
    5eae:	68 33 00 00 00       	pushq  $0x33
    5eb3:	e9 b0 fc ff ff       	jmpq   5b68 <_init+0x18>

0000000000005eb8 <_ZNSsC1EPKcRKSaIcE@plt>:
    5eb8:	ff 25 02 66 10 00    	jmpq   *1074690(%rip)        # 10c4c0 <_GLOBAL_OFFSET_TABLE_+0x1b8>
    5ebe:	68 34 00 00 00       	pushq  $0x34
    5ec3:	e9 a0 fc ff ff       	jmpq   5b68 <_init+0x18>

0000000000005ec8 <pthread_key_delete@plt>:
    5ec8:	ff 25 fa 65 10 00    	jmpq   *1074682(%rip)        # 10c4c8 <_GLOBAL_OFFSET_TABLE_+0x1c0>
    5ece:	68 35 00 00 00       	pushq  $0x35
    5ed3:	e9 90 fc ff ff       	jmpq   5b68 <_init+0x18>

0000000000005ed8 <pthread_cond_init@plt>:
    5ed8:	ff 25 f2 65 10 00    	jmpq   *1074674(%rip)        # 10c4d0 <_GLOBAL_OFFSET_TABLE_+0x1c8>
    5ede:	68 36 00 00 00       	pushq  $0x36
    5ee3:	e9 80 fc ff ff       	jmpq   5b68 <_init+0x18>

0000000000005ee8 <_ZNSt15_List_node_base4hookEPS_@plt>:
    5ee8:	ff 25 ea 65 10 00    	jmpq   *1074666(%rip)        # 10c4d8 <_GLOBAL_OFFSET_TABLE_+0x1d0>
    5eee:	68 37 00 00 00       	pushq  $0x37
    5ef3:	e9 70 fc ff ff       	jmpq   5b68 <_init+0x18>

0000000000005ef8 <_ZNSt6vectorIPvSaIS0_EE5eraseEN9__gnu_cxx17__normal_iteratorIPS0_S2_EES6_@plt>:
    5ef8:	ff 25 e2 65 10 00    	jmpq   *1074658(%rip)        # 10c4e0 <_GLOBAL_OFFSET_TABLE_+0x1d8>
    5efe:	68 38 00 00 00       	pushq  $0x38
    5f03:	e9 60 fc ff ff       	jmpq   5b68 <_init+0x18>

0000000000005f08 <_ZNSt4listIPN5boost6threadESaIS2_EE5eraseESt14_List_iteratorIS2_E@plt>:
    5f08:	ff 25 da 65 10 00    	jmpq   *1074650(%rip)        # 10c4e8 <_GLOBAL_OFFSET_TABLE_+0x1e0>
    5f0e:	68 39 00 00 00       	pushq  $0x39
    5f13:	e9 50 fc ff ff       	jmpq   5b68 <_init+0x18>

0000000000005f18 <pthread_cond_broadcast@plt>:
    5f18:	ff 25 d2 65 10 00    	jmpq   *1074642(%rip)        # 10c4f0 <_GLOBAL_OFFSET_TABLE_+0x1e8>
    5f1e:	68 3a 00 00 00       	pushq  $0x3a
    5f23:	e9 40 fc ff ff       	jmpq   5b68 <_init+0x18>

0000000000005f28 <__cxa_finalize@plt>:
    5f28:	ff 25 ca 65 10 00    	jmpq   *1074634(%rip)        # 10c4f8 <_GLOBAL_OFFSET_TABLE_+0x1f0>
    5f2e:	68 3b 00 00 00       	pushq  $0x3b
    5f33:	e9 30 fc ff ff       	jmpq   5b68 <_init+0x18>

0000000000005f38 <_ZNSt13runtime_errorD2Ev@plt>:
    5f38:	ff 25 c2 65 10 00    	jmpq   *1074626(%rip)        # 10c500 <_GLOBAL_OFFSET_TABLE_+0x1f8>
    5f3e:	68 3c 00 00 00       	pushq  $0x3c
    5f43:	e9 20 fc ff ff       	jmpq   5b68 <_init+0x18>

0000000000005f48 <_ZN5boost5mutexC1Ev@plt>:
    5f48:	ff 25 ba 65 10 00    	jmpq   *1074618(%rip)        # 10c508 <_GLOBAL_OFFSET_TABLE_+0x200>
    5f4e:	68 3d 00 00 00       	pushq  $0x3d
    5f53:	e9 10 fc ff ff       	jmpq   5b68 <_init+0x18>

0000000000005f58 <pthread_mutex_init@plt>:
    5f58:	ff 25 b2 65 10 00    	jmpq   *1074610(%rip)        # 10c510 <_GLOBAL_OFFSET_TABLE_+0x208>
    5f5e:	68 3e 00 00 00       	pushq  $0x3e
    5f63:	e9 00 fc ff ff       	jmpq   5b68 <_init+0x18>

0000000000005f68 <_ZNSt9exceptionD2Ev@plt>:
    5f68:	ff 25 aa 65 10 00    	jmpq   *1074602(%rip)        # 10c518 <_GLOBAL_OFFSET_TABLE_+0x210>
    5f6e:	68 3f 00 00 00       	pushq  $0x3f
    5f73:	e9 f0 fb ff ff       	jmpq   5b68 <_init+0x18>

0000000000005f78 <_ZN5boost10lock_errorC1Ev@plt>:
    5f78:	ff 25 a2 65 10 00    	jmpq   *1074594(%rip)        # 10c520 <_GLOBAL_OFFSET_TABLE_+0x218>
    5f7e:	68 40 00 00 00       	pushq  $0x40
    5f83:	e9 e0 fb ff ff       	jmpq   5b68 <_init+0x18>

0000000000005f88 <_ZN5boost9call_onceEPFvvERi@plt>:
    5f88:	ff 25 9a 65 10 00    	jmpq   *1074586(%rip)        # 10c528 <_GLOBAL_OFFSET_TABLE_+0x220>
    5f8e:	68 41 00 00 00       	pushq  $0x41
    5f93:	e9 d0 fb ff ff       	jmpq   5b68 <_init+0x18>

0000000000005f98 <_ZSt6fill_nIPPvmS0_ET_S2_T0_RKT1_@plt>:
    5f98:	ff 25 92 65 10 00    	jmpq   *1074578(%rip)        # 10c530 <_GLOBAL_OFFSET_TABLE_+0x228>
    5f9e:	68 42 00 00 00       	pushq  $0x42
    5fa3:	e9 c0 fb ff ff       	jmpq   5b68 <_init+0x18>

0000000000005fa8 <pthread_join@plt>:
    5fa8:	ff 25 8a 65 10 00    	jmpq   *1074570(%rip)        # 10c538 <_GLOBAL_OFFSET_TABLE_+0x230>
    5fae:	68 43 00 00 00       	pushq  $0x43
    5fb3:	e9 b0 fb ff ff       	jmpq   5b68 <_init+0x18>

0000000000005fb8 <_ZN5boost6detail14condition_impl10notify_oneEv@plt>:
    5fb8:	ff 25 82 65 10 00    	jmpq   *1074562(%rip)        # 10c540 <_GLOBAL_OFFSET_TABLE_+0x238>
    5fbe:	68 44 00 00 00       	pushq  $0x44
    5fc3:	e9 a0 fb ff ff       	jmpq   5b68 <_init+0x18>

0000000000005fc8 <_ZN5boost16thread_exceptionC2Ev@plt>:
    5fc8:	ff 25 7a 65 10 00    	jmpq   *1074554(%rip)        # 10c548 <_GLOBAL_OFFSET_TABLE_+0x240>
    5fce:	68 45 00 00 00       	pushq  $0x45
    5fd3:	e9 90 fb ff ff       	jmpq   5b68 <_init+0x18>

0000000000005fd8 <_ZNK5boost9function1IvPvSaINS_13function_baseEEEclES1_@plt>:
    5fd8:	ff 25 72 65 10 00    	jmpq   *1074546(%rip)        # 10c550 <_GLOBAL_OFFSET_TABLE_+0x248>
    5fde:	68 46 00 00 00       	pushq  $0x46
    5fe3:	e9 80 fb ff ff       	jmpq   5b68 <_init+0x18>

0000000000005fe8 <pthread_mutex_unlock@plt>:
    5fe8:	ff 25 6a 65 10 00    	jmpq   *1074538(%rip)        # 10c558 <_GLOBAL_OFFSET_TABLE_+0x250>
    5fee:	68 47 00 00 00       	pushq  $0x47
    5ff3:	e9 70 fb ff ff       	jmpq   5b68 <_init+0x18>

0000000000005ff8 <pthread_cond_destroy@plt>:
    5ff8:	ff 25 62 65 10 00    	jmpq   *1074530(%rip)        # 10c560 <_GLOBAL_OFFSET_TABLE_+0x258>
    5ffe:	68 48 00 00 00       	pushq  $0x48
    6003:	e9 60 fb ff ff       	jmpq   5b68 <_init+0x18>

0000000000006008 <pthread_getspecific@plt>:
    6008:	ff 25 5a 65 10 00    	jmpq   *1074522(%rip)        # 10c568 <_GLOBAL_OFFSET_TABLE_+0x260>
    600e:	68 49 00 00 00       	pushq  $0x49
    6013:	e9 50 fb ff ff       	jmpq   5b68 <_init+0x18>

0000000000006018 <_ZN9__gnu_cxx18__exchange_and_addEPVii@plt>:
    6018:	ff 25 52 65 10 00    	jmpq   *1074514(%rip)        # 10c570 <_GLOBAL_OFFSET_TABLE_+0x268>
    601e:	68 4a 00 00 00       	pushq  $0x4a
    6023:	e9 40 fb ff ff       	jmpq   5b68 <_init+0x18>

0000000000006028 <gettimeofday@plt>:
    6028:	ff 25 4a 65 10 00    	jmpq   *1074506(%rip)        # 10c578 <_GLOBAL_OFFSET_TABLE_+0x270>
    602e:	68 4b 00 00 00       	pushq  $0x4b
    6033:	e9 30 fb ff ff       	jmpq   5b68 <_init+0x18>

0000000000006038 <_Unwind_Resume@plt>:
    6038:	ff 25 42 65 10 00    	jmpq   *1074498(%rip)        # 10c580 <_GLOBAL_OFFSET_TABLE_+0x278>
    603e:	68 4c 00 00 00       	pushq  $0x4c
    6043:	e9 20 fb ff ff       	jmpq   5b68 <_init+0x18>

0000000000006048 <_ZNSt10_List_baseIPN5boost6threadESaIS2_EE8_M_clearEv@plt>:
    6048:	ff 25 3a 65 10 00    	jmpq   *1074490(%rip)        # 10c588 <_GLOBAL_OFFSET_TABLE_+0x280>
    604e:	68 4d 00 00 00       	pushq  $0x4d
    6053:	e9 10 fb ff ff       	jmpq   5b68 <_init+0x18>

0000000000006058 <_ZSt4fillIN9__gnu_cxx17__normal_iteratorIPPvSt6vectorIS2_SaIS2_EEEES2_EvT_S8_RKT0_@plt>:
    6058:	ff 25 32 65 10 00    	jmpq   *1074482(%rip)        # 10c590 <_GLOBAL_OFFSET_TABLE_+0x288>
    605e:	68 4e 00 00 00       	pushq  $0x4e
    6063:	e9 00 fb ff ff       	jmpq   5b68 <_init+0x18>

0000000000006068 <__cxa_throw@plt>:
    6068:	ff 25 2a 65 10 00    	jmpq   *1074474(%rip)        # 10c598 <_GLOBAL_OFFSET_TABLE_+0x290>
    606e:	68 4f 00 00 00       	pushq  $0x4f
    6073:	e9 f0 fa ff ff       	jmpq   5b68 <_init+0x18>

0000000000006078 <_ZNSt6vectorIPN5boost9function1IvPvSaINS0_13function_baseEEEESaIS6_EE13_M_insert_auxEN9__gnu_cxx17__normal_iteratorIPS6_S8_EERKS6_@plt>:
    6078:	ff 25 22 65 10 00    	jmpq   *1074466(%rip)        # 10c5a0 <_GLOBAL_OFFSET_TABLE_+0x298>
    607e:	68 50 00 00 00       	pushq  $0x50
    6083:	e9 e0 fa ff ff       	jmpq   5b68 <_init+0x18>

0000000000006088 <_Jv_RegisterClasses@plt>:
    6088:	ff 25 1a 65 10 00    	jmpq   *1074458(%rip)        # 10c5a8 <_GLOBAL_OFFSET_TABLE_+0x2a0>
    608e:	68 51 00 00 00       	pushq  $0x51
    6093:	e9 d0 fa ff ff       	jmpq   5b68 <_init+0x18>

0000000000006098 <_ZN5boost5mutex9do_unlockEv@plt>:
    6098:	ff 25 12 65 10 00    	jmpq   *1074450(%rip)        # 10c5b0 <_GLOBAL_OFFSET_TABLE_+0x2a8>
    609e:	68 52 00 00 00       	pushq  $0x52
    60a3:	e9 c0 fa ff ff       	jmpq   5b68 <_init+0x18>

00000000000060a8 <_ZN5boost5mutexD1Ev@plt>:
    60a8:	ff 25 0a 65 10 00    	jmpq   *1074442(%rip)        # 10c5b8 <_GLOBAL_OFFSET_TABLE_+0x2b0>
    60ae:	68 53 00 00 00       	pushq  $0x53
    60b3:	e9 b0 fa ff ff       	jmpq   5b68 <_init+0x18>

00000000000060b8 <_ZdlPv@plt>:
    60b8:	ff 25 02 65 10 00    	jmpq   *1074434(%rip)        # 10c5c0 <_GLOBAL_OFFSET_TABLE_+0x2b8>
    60be:	68 54 00 00 00       	pushq  $0x54
    60c3:	e9 a0 fa ff ff       	jmpq   5b68 <_init+0x18>

00000000000060c8 <_ZNSt8ios_base4InitD1Ev@plt>:
    60c8:	ff 25 fa 64 10 00    	jmpq   *1074426(%rip)        # 10c5c8 <_GLOBAL_OFFSET_TABLE_+0x2c0>
    60ce:	68 55 00 00 00       	pushq  $0x55
    60d3:	e9 90 fa ff ff       	jmpq   5b68 <_init+0x18>

00000000000060d8 <_ZN5boost21thread_resource_errorC1Ev@plt>:
    60d8:	ff 25 f2 64 10 00    	jmpq   *1074418(%rip)        # 10c5d0 <_GLOBAL_OFFSET_TABLE_+0x2c8>
    60de:	68 56 00 00 00       	pushq  $0x56
    60e3:	e9 80 fa ff ff       	jmpq   5b68 <_init+0x18>
Disassembly of section .text:

00000000000060f0 <_ZN5boost7barrierD2Ev-0xa0>:
    60f0:	48 83 ec 08          	sub    $0x8,%rsp
    60f4:	48 8b 05 05 62 10 00 	mov    1073669(%rip),%rax        # 10c300 <_DYNAMIC+0x2c8>
    60fb:	48 85 c0             	test   %rax,%rax
    60fe:	74 02                	je     6102 <_ZN5boost21thread_resource_errorC1Ev@plt+0x2a>
    6100:	ff d0                	callq  *%rax
    6102:	48 83 c4 08          	add    $0x8,%rsp
    6106:	c3                   	retq   
    6107:	90                   	nop    
    6108:	90                   	nop    
    6109:	90                   	nop    
    610a:	90                   	nop    
    610b:	90                   	nop    
    610c:	90                   	nop    
    610d:	90                   	nop    
    610e:	90                   	nop    
    610f:	90                   	nop    
    6110:	80 3d d1 67 10 00 00 	cmpb   $0x0,1075153(%rip)        # 10c8e8 <__bss_start>
    6117:	55                   	push   %rbp
    6118:	48 89 e5             	mov    %rsp,%rbp
    611b:	75 3b                	jne    6158 <_ZN5boost21thread_resource_errorC1Ev@plt+0x80>
    611d:	48 83 3d 83 61 10 00 	cmpq   $0x0,1073539(%rip)        # 10c2a8 <_DYNAMIC+0x270>
    6124:	00 
    6125:	74 1b                	je     6142 <_ZN5boost21thread_resource_errorC1Ev@plt+0x6a>
    6127:	48 8b 3d b2 64 10 00 	mov    1074354(%rip),%rdi        # 10c5e0 <_GLOBAL_OFFSET_TABLE_+0x2d8>
    612e:	e8 f5 fd ff ff       	callq  5f28 <__cxa_finalize@plt>
    6133:	eb 0d                	jmp    6142 <_ZN5boost21thread_resource_errorC1Ev@plt+0x6a>
    6135:	48 83 c0 08          	add    $0x8,%rax
    6139:	48 89 05 a8 64 10 00 	mov    %rax,1074344(%rip)        # 10c5e8 <_GLOBAL_OFFSET_TABLE_+0x2e0>
    6140:	ff d2                	callq  *%rdx
    6142:	48 8b 05 9f 64 10 00 	mov    1074335(%rip),%rax        # 10c5e8 <_GLOBAL_OFFSET_TABLE_+0x2e0>
    6149:	48 8b 10             	mov    (%rax),%rdx
    614c:	48 85 d2             	test   %rdx,%rdx
    614f:	75 e4                	jne    6135 <_ZN5boost21thread_resource_errorC1Ev@plt+0x5d>
    6151:	c6 05 90 67 10 00 01 	movb   $0x1,1075088(%rip)        # 10c8e8 <__bss_start>
    6158:	c9                   	leaveq 
    6159:	c3                   	retq   
    615a:	66 66 90             	xchg   %ax,%ax
    615d:	66 66 90             	xchg   %ax,%ax
    6160:	55                   	push   %rbp
    6161:	48 83 3d c7 5e 10 00 	cmpq   $0x0,1072839(%rip)        # 10c030 <_ZTSN5boost17bad_function_callE+0x101f30>
    6168:	00 
    6169:	48 89 e5             	mov    %rsp,%rbp
    616c:	74 17                	je     6185 <_ZN5boost21thread_resource_errorC1Ev@plt+0xad>
    616e:	48 83 3d 7a 61 10 00 	cmpq   $0x0,1073530(%rip)        # 10c2f0 <_DYNAMIC+0x2b8>
    6175:	00 
    6176:	74 0d                	je     6185 <_ZN5boost21thread_resource_errorC1Ev@plt+0xad>
    6178:	c9                   	leaveq 
    6179:	48 8d 3d b0 5e 10 00 	lea    1072816(%rip),%rdi        # 10c030 <_ZTSN5boost17bad_function_callE+0x101f30>
    6180:	e9 03 ff ff ff       	jmpq   6088 <_Jv_RegisterClasses@plt>
    6185:	c9                   	leaveq 
    6186:	c3                   	retq   
    6187:	90                   	nop    
    6188:	90                   	nop    
    6189:	90                   	nop    
    618a:	90                   	nop    
    618b:	90                   	nop    
    618c:	90                   	nop    
    618d:	90                   	nop    
    618e:	90                   	nop    
    618f:	90                   	nop    

0000000000006190 <_ZN5boost7barrierD2Ev>:
    6190:	48 89 6c 24 f8       	mov    %rbp,0xfffffffffffffff8(%rsp)
    6195:	48 89 5c 24 f0       	mov    %rbx,0xfffffffffffffff0(%rsp)
    619a:	48 83 ec 18          	sub    $0x18,%rsp
    619e:	48 89 fd             	mov    %rdi,%rbp
    61a1:	48 8d 7f 30          	lea    0x30(%rdi),%rdi
    61a5:	e8 7e fb ff ff       	callq  5d28 <_ZN5boost6detail14condition_implD1Ev@plt>
    61aa:	48 89 ef             	mov    %rbp,%rdi
    61ad:	e8 f6 fe ff ff       	callq  60a8 <_ZN5boost5mutexD1Ev@plt>
    61b2:	48 8b 5c 24 08       	mov    0x8(%rsp),%rbx
    61b7:	48 8b 6c 24 10       	mov    0x10(%rsp),%rbp
    61bc:	48 83 c4 18          	add    $0x18,%rsp
    61c0:	c3                   	retq   
    61c1:	48 89 c3             	mov    %rax,%rbx
    61c4:	48 89 ef             	mov    %rbp,%rdi
    61c7:	e8 dc fe ff ff       	callq  60a8 <_ZN5boost5mutexD1Ev@plt>
    61cc:	48 89 df             	mov    %rbx,%rdi
    61cf:	e8 64 fe ff ff       	callq  6038 <_Unwind_Resume@plt>
    61d4:	66 66 66 90          	xchg   %ax,%ax
    61d8:	66 66 66 90          	xchg   %ax,%ax
    61dc:	66 66 66 90          	xchg   %ax,%ax

00000000000061e0 <_ZN5boost7barrierD1Ev>:
    61e0:	48 89 6c 24 f8       	mov    %rbp,0xfffffffffffffff8(%rsp)
    61e5:	48 89 5c 24 f0       	mov    %rbx,0xfffffffffffffff0(%rsp)
    61ea:	48 83 ec 18          	sub    $0x18,%rsp
    61ee:	48 89 fd             	mov    %rdi,%rbp
    61f1:	48 8d 7f 30          	lea    0x30(%rdi),%rdi
    61f5:	e8 2e fb ff ff       	callq  5d28 <_ZN5boost6detail14condition_implD1Ev@plt>
    61fa:	48 89 ef             	mov    %rbp,%rdi
    61fd:	e8 a6 fe ff ff       	callq  60a8 <_ZN5boost5mutexD1Ev@plt>
    6202:	48 8b 5c 24 08       	mov    0x8(%rsp),%rbx
    6207:	48 8b 6c 24 10       	mov    0x10(%rsp),%rbp
    620c:	48 83 c4 18          	add    $0x18,%rsp
    6210:	c3                   	retq   
    6211:	48 89 c3             	mov    %rax,%rbx
    6214:	48 89 ef             	mov    %rbp,%rdi
    6217:	e8 8c fe ff ff       	callq  60a8 <_ZN5boost5mutexD1Ev@plt>
    621c:	48 89 df             	mov    %rbx,%rdi
    621f:	e8 14 fe ff ff       	callq  6038 <_Unwind_Resume@plt>
    6224:	66 66 66 90          	xchg   %ax,%ax
    6228:	66 66 66 90          	xchg   %ax,%ax
    622c:	66 66 66 90          	xchg   %ax,%ax

0000000000006230 <_ZN5boost7barrierC1Ej>:
    6230:	48 89 6c 24 e0       	mov    %rbp,0xffffffffffffffe0(%rsp)
    6235:	48 89 fd             	mov    %rdi,%rbp
    6238:	4c 89 64 24 e8       	mov    %r12,0xffffffffffffffe8(%rsp)
    623d:	4c 8d 65 30          	lea    0x30(%rbp),%r12
    6241:	48 89 5c 24 d8       	mov    %rbx,0xffffffffffffffd8(%rsp)
    6246:	4c 89 6c 24 f0       	mov    %r13,0xfffffffffffffff0(%rsp)
    624b:	4c 89 74 24 f8       	mov    %r14,0xfffffffffffffff8(%rsp)
    6250:	48 83 ec 58          	sub    $0x58,%rsp
    6254:	89 f3                	mov    %esi,%ebx
    6256:	e8 ed fc ff ff       	callq  5f48 <_ZN5boost5mutexC1Ev@plt>
    625b:	4c 89 e7             	mov    %r12,%rdi
    625e:	e8 95 fb ff ff       	callq  5df8 <_ZN5boost6detail14condition_implC1Ev@plt>
    6263:	85 db                	test   %ebx,%ebx
    6265:	89 5d 60             	mov    %ebx,0x60(%rbp)
    6268:	89 5d 64             	mov    %ebx,0x64(%rbp)
    626b:	c7 45 68 00 00 00 00 	movl   $0x0,0x68(%rbp)
    6272:	74 31                	je     62a5 <_ZN5boost7barrierC1Ej+0x75>
    6274:	48 8b 5c 24 30       	mov    0x30(%rsp),%rbx
    6279:	48 8b 6c 24 38       	mov    0x38(%rsp),%rbp
    627e:	4c 8b 64 24 40       	mov    0x40(%rsp),%r12
    6283:	4c 8b 6c 24 48       	mov    0x48(%rsp),%r13
    6288:	4c 8b 74 24 50       	mov    0x50(%rsp),%r14
    628d:	48 83 c4 58          	add    $0x58,%rsp
    6291:	c3                   	retq   
    6292:	48 89 c3             	mov    %rax,%rbx
    6295:	48 89 ef             	mov    %rbp,%rdi
    6298:	e8 0b fe ff ff       	callq  60a8 <_ZN5boost5mutexD1Ev@plt>
    629d:	48 89 df             	mov    %rbx,%rdi
    62a0:	e8 93 fd ff ff       	callq  6038 <_Unwind_Resume@plt>
    62a5:	48 8d 5c 24 20       	lea    0x20(%rsp),%rbx
    62aa:	48 8d 54 24 10       	lea    0x10(%rsp),%rdx
    62af:	48 8d 35 7f 3c 00 00 	lea    15487(%rip),%rsi        # 9f35 <_ZTSSt16invalid_argument+0x15>
    62b6:	48 89 df             	mov    %rbx,%rdi
    62b9:	e8 fa fb ff ff       	callq  5eb8 <_ZNSsC1EPKcRKSaIcE@plt>
    62be:	bf 10 00 00 00       	mov    $0x10,%edi
    62c3:	e8 10 fb ff ff       	callq  5dd8 <__cxa_allocate_exception@plt>
    62c8:	48 89 de             	mov    %rbx,%rsi
    62cb:	49 89 c5             	mov    %rax,%r13
    62ce:	48 89 c7             	mov    %rax,%rdi
    62d1:	e8 c2 f9 ff ff       	callq  5c98 <_ZNSt16invalid_argumentC1ERKSs@plt>
    62d6:	48 8b 5c 24 20       	mov    0x20(%rsp),%rbx
    62db:	48 83 eb 18          	sub    $0x18,%rbx
    62df:	48 39 1d 3a 5f 10 00 	cmp    %rbx,1072954(%rip)        # 10c220 <_DYNAMIC+0x1e8>
    62e6:	75 4f                	jne    6337 <_ZN5boost7barrierC1Ej+0x107>
    62e8:	48 8b 15 99 5f 10 00 	mov    1073049(%rip),%rdx        # 10c288 <_DYNAMIC+0x250>
    62ef:	48 8b 35 02 60 10 00 	mov    1073154(%rip),%rsi        # 10c2f8 <_DYNAMIC+0x2c0>
    62f6:	4c 89 ef             	mov    %r13,%rdi
    62f9:	e8 6a fd ff ff       	callq  6068 <__cxa_throw@plt>
    62fe:	4c 89 ef             	mov    %r13,%rdi
    6301:	48 89 c3             	mov    %rax,%rbx
    6304:	e8 3f f9 ff ff       	callq  5c48 <__cxa_free_exception@plt>
    6309:	4c 8b 6c 24 20       	mov    0x20(%rsp),%r13
    630e:	49 83 ed 18          	sub    $0x18,%r13
    6312:	4c 39 2d 07 5f 10 00 	cmp    %r13,1072903(%rip)        # 10c220 <_DYNAMIC+0x1e8>
    6319:	75 3b                	jne    6356 <_ZN5boost7barrierC1Ej+0x126>
    631b:	66 66 90             	xchg   %ax,%ax
    631e:	66 90                	xchg   %ax,%ax
    6320:	4c 89 e7             	mov    %r12,%rdi
    6323:	e8 00 fa ff ff       	callq  5d28 <_ZN5boost6detail14condition_implD1Ev@plt>
    6328:	e9 68 ff ff ff       	jmpq   6295 <_ZN5boost7barrierC1Ej+0x65>
    632d:	66 66 90             	xchg   %ax,%ax
    6330:	48 89 c3             	mov    %rax,%rbx
    6333:	eb eb                	jmp    6320 <_ZN5boost7barrierC1Ej+0xf0>
    6335:	eb f9                	jmp    6330 <_ZN5boost7barrierC1Ej+0x100>
    6337:	48 8d 7b 10          	lea    0x10(%rbx),%rdi
    633b:	be ff ff ff ff       	mov    $0xffffffff,%esi
    6340:	e8 d3 fc ff ff       	callq  6018 <_ZN9__gnu_cxx18__exchange_and_addEPVii@plt>
    6345:	85 c0                	test   %eax,%eax
    6347:	7f 9f                	jg     62e8 <_ZN5boost7barrierC1Ej+0xb8>
    6349:	48 89 e6             	mov    %rsp,%rsi
    634c:	48 89 df             	mov    %rbx,%rdi
    634f:	e8 b4 fa ff ff       	callq  5e08 <_ZNSs4_Rep10_M_destroyERKSaIcE@plt>
    6354:	eb 92                	jmp    62e8 <_ZN5boost7barrierC1Ej+0xb8>
    6356:	49 8d 7d 10          	lea    0x10(%r13),%rdi
    635a:	be ff ff ff ff       	mov    $0xffffffff,%esi
    635f:	e8 b4 fc ff ff       	callq  6018 <_ZN9__gnu_cxx18__exchange_and_addEPVii@plt>
    6364:	85 c0                	test   %eax,%eax
    6366:	7f b8                	jg     6320 <_ZN5boost7barrierC1Ej+0xf0>
    6368:	48 89 e6             	mov    %rsp,%rsi
    636b:	4c 89 ef             	mov    %r13,%rdi
    636e:	e8 95 fa ff ff       	callq  5e08 <_ZNSs4_Rep10_M_destroyERKSaIcE@plt>
    6373:	eb ab                	jmp    6320 <_ZN5boost7barrierC1Ej+0xf0>
    6375:	eb b9                	jmp    6330 <_ZN5boost7barrierC1Ej+0x100>
    6377:	90                   	nop    
    6378:	66 66 66 90          	xchg   %ax,%ax
    637c:	66 66 66 90          	xchg   %ax,%ax

0000000000006380 <_ZN5boost7barrierC2Ej>:
    6380:	48 89 6c 24 e0       	mov    %rbp,0xffffffffffffffe0(%rsp)
    6385:	48 89 fd             	mov    %rdi,%rbp
    6388:	4c 89 64 24 e8       	mov    %r12,0xffffffffffffffe8(%rsp)
    638d:	4c 8d 65 30          	lea    0x30(%rbp),%r12
    6391:	48 89 5c 24 d8       	mov    %rbx,0xffffffffffffffd8(%rsp)
    6396:	4c 89 6c 24 f0       	mov    %r13,0xfffffffffffffff0(%rsp)
    639b:	4c 89 74 24 f8       	mov    %r14,0xfffffffffffffff8(%rsp)
    63a0:	48 83 ec 58          	sub    $0x58,%rsp
    63a4:	89 f3                	mov    %esi,%ebx
    63a6:	e8 9d fb ff ff       	callq  5f48 <_ZN5boost5mutexC1Ev@plt>
    63ab:	4c 89 e7             	mov    %r12,%rdi
    63ae:	e8 45 fa ff ff       	callq  5df8 <_ZN5boost6detail14condition_implC1Ev@plt>
    63b3:	85 db                	test   %ebx,%ebx
    63b5:	89 5d 60             	mov    %ebx,0x60(%rbp)
    63b8:	89 5d 64             	mov    %ebx,0x64(%rbp)
    63bb:	c7 45 68 00 00 00 00 	movl   $0x0,0x68(%rbp)
    63c2:	74 31                	je     63f5 <_ZN5boost7barrierC2Ej+0x75>
    63c4:	48 8b 5c 24 30       	mov    0x30(%rsp),%rbx
    63c9:	48 8b 6c 24 38       	mov    0x38(%rsp),%rbp
    63ce:	4c 8b 64 24 40       	mov    0x40(%rsp),%r12
    63d3:	4c 8b 6c 24 48       	mov    0x48(%rsp),%r13
    63d8:	4c 8b 74 24 50       	mov    0x50(%rsp),%r14
    63dd:	48 83 c4 58          	add    $0x58,%rsp
    63e1:	c3                   	retq   
    63e2:	48 89 c3             	mov    %rax,%rbx
    63e5:	48 89 ef             	mov    %rbp,%rdi
    63e8:	e8 bb fc ff ff       	callq  60a8 <_ZN5boost5mutexD1Ev@plt>
    63ed:	48 89 df             	mov    %rbx,%rdi
    63f0:	e8 43 fc ff ff       	callq  6038 <_Unwind_Resume@plt>
    63f5:	48 8d 5c 24 20       	lea    0x20(%rsp),%rbx
    63fa:	48 8d 54 24 10       	lea    0x10(%rsp),%rdx
    63ff:	48 8d 35 2f 3b 00 00 	lea    15151(%rip),%rsi        # 9f35 <_ZTSSt16invalid_argument+0x15>
    6406:	48 89 df             	mov    %rbx,%rdi
    6409:	e8 aa fa ff ff       	callq  5eb8 <_ZNSsC1EPKcRKSaIcE@plt>
    640e:	bf 10 00 00 00       	mov    $0x10,%edi
    6413:	e8 c0 f9 ff ff       	callq  5dd8 <__cxa_allocate_exception@plt>
    6418:	48 89 de             	mov    %rbx,%rsi
    641b:	49 89 c5             	mov    %rax,%r13
    641e:	48 89 c7             	mov    %rax,%rdi
    6421:	e8 72 f8 ff ff       	callq  5c98 <_ZNSt16invalid_argumentC1ERKSs@plt>
    6426:	48 8b 5c 24 20       	mov    0x20(%rsp),%rbx
    642b:	48 83 eb 18          	sub    $0x18,%rbx
    642f:	48 39 1d ea 5d 10 00 	cmp    %rbx,1072618(%rip)        # 10c220 <_DYNAMIC+0x1e8>
    6436:	75 4f                	jne    6487 <_ZN5boost7barrierC2Ej+0x107>
    6438:	48 8b 15 49 5e 10 00 	mov    1072713(%rip),%rdx        # 10c288 <_DYNAMIC+0x250>
    643f:	48 8b 35 b2 5e 10 00 	mov    1072818(%rip),%rsi        # 10c2f8 <_DYNAMIC+0x2c0>
    6446:	4c 89 ef             	mov    %r13,%rdi
    6449:	e8 1a fc ff ff       	callq  6068 <__cxa_throw@plt>
    644e:	4c 89 ef             	mov    %r13,%rdi
    6451:	48 89 c3             	mov    %rax,%rbx
    6454:	e8 ef f7 ff ff       	callq  5c48 <__cxa_free_exception@plt>
    6459:	4c 8b 6c 24 20       	mov    0x20(%rsp),%r13
    645e:	49 83 ed 18          	sub    $0x18,%r13
    6462:	4c 39 2d b7 5d 10 00 	cmp    %r13,1072567(%rip)        # 10c220 <_DYNAMIC+0x1e8>
    6469:	75 3b                	jne    64a6 <_ZN5boost7barrierC2Ej+0x126>
    646b:	66 66 90             	xchg   %ax,%ax
    646e:	66 90                	xchg   %ax,%ax
    6470:	4c 89 e7             	mov    %r12,%rdi
    6473:	e8 b0 f8 ff ff       	callq  5d28 <_ZN5boost6detail14condition_implD1Ev@plt>
    6478:	e9 68 ff ff ff       	jmpq   63e5 <_ZN5boost7barrierC2Ej+0x65>
    647d:	66 66 90             	xchg   %ax,%ax
    6480:	48 89 c3             	mov    %rax,%rbx
    6483:	eb eb                	jmp    6470 <_ZN5boost7barrierC2Ej+0xf0>
    6485:	eb f9                	jmp    6480 <_ZN5boost7barrierC2Ej+0x100>
    6487:	48 8d 7b 10          	lea    0x10(%rbx),%rdi
    648b:	be ff ff ff ff       	mov    $0xffffffff,%esi
    6490:	e8 83 fb ff ff       	callq  6018 <_ZN9__gnu_cxx18__exchange_and_addEPVii@plt>
    6495:	85 c0                	test   %eax,%eax
    6497:	7f 9f                	jg     6438 <_ZN5boost7barrierC2Ej+0xb8>
    6499:	48 89 e6             	mov    %rsp,%rsi
    649c:	48 89 df             	mov    %rbx,%rdi
    649f:	e8 64 f9 ff ff       	callq  5e08 <_ZNSs4_Rep10_M_destroyERKSaIcE@plt>
    64a4:	eb 92                	jmp    6438 <_ZN5boost7barrierC2Ej+0xb8>
    64a6:	49 8d 7d 10          	lea    0x10(%r13),%rdi
    64aa:	be ff ff ff ff       	mov    $0xffffffff,%esi
    64af:	e8 64 fb ff ff       	callq  6018 <_ZN9__gnu_cxx18__exchange_and_addEPVii@plt>
    64b4:	85 c0                	test   %eax,%eax
    64b6:	7f b8                	jg     6470 <_ZN5boost7barrierC2Ej+0xf0>
    64b8:	48 89 e6             	mov    %rsp,%rsi
    64bb:	4c 89 ef             	mov    %r13,%rdi
    64be:	e8 45 f9 ff ff       	callq  5e08 <_ZNSs4_Rep10_M_destroyERKSaIcE@plt>
    64c3:	eb ab                	jmp    6470 <_ZN5boost7barrierC2Ej+0xf0>
    64c5:	eb b9                	jmp    6480 <_ZN5boost7barrierC2Ej+0x100>
    64c7:	90                   	nop    
    64c8:	66 66 66 90          	xchg   %ax,%ax
    64cc:	66 66 66 90          	xchg   %ax,%ax

00000000000064d0 <_ZN5boost7barrier4waitEv>:
    64d0:	48 89 5c 24 d8       	mov    %rbx,0xffffffffffffffd8(%rsp)
    64d5:	48 89 6c 24 e0       	mov    %rbp,0xffffffffffffffe0(%rsp)
    64da:	48 89 fb             	mov    %rdi,%rbx
    64dd:	4c 89 64 24 e8       	mov    %r12,0xffffffffffffffe8(%rsp)
    64e2:	4c 89 6c 24 f0       	mov    %r13,0xfffffffffffffff0(%rsp)
    64e7:	4c 89 74 24 f8       	mov    %r14,0xfffffffffffffff8(%rsp)
    64ec:	48 83 ec 48          	sub    $0x48,%rsp
    64f0:	48 89 7c 24 10       	mov    %rdi,0x10(%rsp)
    64f5:	c6 44 24 18 00       	movb   $0x0,0x18(%rsp)
    64fa:	e8 09 f7 ff ff       	callq  5c08 <_ZN5boost5mutex7do_lockEv@plt>
    64ff:	8b 43 64             	mov    0x64(%rbx),%eax
    6502:	c6 44 24 18 01       	movb   $0x1,0x18(%rsp)
    6507:	44 8b 6b 68          	mov    0x68(%rbx),%r13d
    650b:	ff c8                	dec    %eax
    650d:	74 73                	je     6582 <_ZN5boost7barrier4waitEv+0xb2>
    650f:	4c 8d 73 28          	lea    0x28(%rbx),%r14
    6513:	89 43 64             	mov    %eax,0x64(%rbx)
    6516:	80 7c 24 18 00       	cmpb   $0x0,0x18(%rsp)
    651b:	0f 84 db 00 00 00    	je     65fc <_ZN5boost7barrier4waitEv+0x12c>
    6521:	48 8b 6c 24 10       	mov    0x10(%rsp),%rbp
    6526:	4c 8d 64 24 08       	lea    0x8(%rsp),%r12
    652b:	4c 89 e6             	mov    %r12,%rsi
    652e:	48 89 ef             	mov    %rbp,%rdi
    6531:	e8 02 f9 ff ff       	callq  5e38 <_ZN5boost5mutex9do_unlockERNS0_8cv_stateE@plt>
    6536:	48 8b 74 24 08       	mov    0x8(%rsp),%rsi
    653b:	49 8d 7e 08          	lea    0x8(%r14),%rdi
    653f:	e8 24 f8 ff ff       	callq  5d68 <_ZN5boost6detail14condition_impl7do_waitEP15pthread_mutex_t@plt>
    6544:	4c 89 e6             	mov    %r12,%rsi
    6547:	48 89 ef             	mov    %rbp,%rdi
    654a:	e8 09 f9 ff ff       	callq  5e58 <_ZN5boost5mutex7do_lockERNS0_8cv_stateE@plt>
    654f:	44 39 6b 68          	cmp    %r13d,0x68(%rbx)
    6553:	74 c1                	je     6516 <_ZN5boost7barrier4waitEv+0x46>
    6555:	80 7c 24 18 00       	cmpb   $0x0,0x18(%rsp)
    655a:	0f 85 84 00 00 00    	jne    65e4 <_ZN5boost7barrier4waitEv+0x114>
    6560:	31 c0                	xor    %eax,%eax
    6562:	eb 40                	jmp    65a4 <_ZN5boost7barrier4waitEv+0xd4>
    6564:	48 89 c7             	mov    %rax,%rdi
    6567:	e8 cc fa ff ff       	callq  6038 <_Unwind_Resume@plt>
    656c:	66 66 66 90          	xchg   %ax,%ax
    6570:	48 89 c3             	mov    %rax,%rbx
    6573:	80 7c 24 18 00       	cmpb   $0x0,0x18(%rsp)
    6578:	75 48                	jne    65c2 <_ZN5boost7barrier4waitEv+0xf2>
    657a:	48 89 df             	mov    %rbx,%rdi
    657d:	e8 b6 fa ff ff       	callq  6038 <_Unwind_Resume@plt>
    6582:	8b 43 60             	mov    0x60(%rbx),%eax
    6585:	41 8d 55 01          	lea    0x1(%r13),%edx
    6589:	48 8d 7b 30          	lea    0x30(%rbx),%rdi
    658d:	89 53 68             	mov    %edx,0x68(%rbx)
    6590:	89 43 64             	mov    %eax,0x64(%rbx)
    6593:	e8 30 f7 ff ff       	callq  5cc8 <_ZN5boost6detail14condition_impl10notify_allEv@plt>
    6598:	80 7c 24 18 00       	cmpb   $0x0,0x18(%rsp)
    659d:	75 34                	jne    65d3 <_ZN5boost7barrier4waitEv+0x103>
    659f:	b8 01 00 00 00       	mov    $0x1,%eax
    65a4:	48 8b 5c 24 20       	mov    0x20(%rsp),%rbx
    65a9:	48 8b 6c 24 28       	mov    0x28(%rsp),%rbp
    65ae:	4c 8b 64 24 30       	mov    0x30(%rsp),%r12
    65b3:	4c 8b 6c 24 38       	mov    0x38(%rsp),%r13
    65b8:	4c 8b 74 24 40       	mov    0x40(%rsp),%r14
    65bd:	48 83 c4 48          	add    $0x48,%rsp
    65c1:	c3                   	retq   
    65c2:	48 8b 7c 24 10       	mov    0x10(%rsp),%rdi
    65c7:	e8 cc fa ff ff       	callq  6098 <_ZN5boost5mutex9do_unlockEv@plt>
    65cc:	c6 44 24 18 00       	movb   $0x0,0x18(%rsp)
    65d1:	eb a7                	jmp    657a <_ZN5boost7barrier4waitEv+0xaa>
    65d3:	48 8b 7c 24 10       	mov    0x10(%rsp),%rdi
    65d8:	e8 bb fa ff ff       	callq  6098 <_ZN5boost5mutex9do_unlockEv@plt>
    65dd:	c6 44 24 18 00       	movb   $0x0,0x18(%rsp)
    65e2:	eb bb                	jmp    659f <_ZN5boost7barrier4waitEv+0xcf>
    65e4:	48 8b 7c 24 10       	mov    0x10(%rsp),%rdi
    65e9:	e8 aa fa ff ff       	callq  6098 <_ZN5boost5mutex9do_unlockEv@plt>
    65ee:	31 c0                	xor    %eax,%eax
    65f0:	c6 44 24 18 00       	movb   $0x0,0x18(%rsp)
    65f5:	eb ad                	jmp    65a4 <_ZN5boost7barrier4waitEv+0xd4>
    65f7:	e9 68 ff ff ff       	jmpq   6564 <_ZN5boost7barrier4waitEv+0x94>
    65fc:	bf 10 00 00 00       	mov    $0x10,%edi
    6601:	e8 d2 f7 ff ff       	callq  5dd8 <__cxa_allocate_exception@plt>
    6606:	48 89 c5             	mov    %rax,%rbp
    6609:	48 89 c7             	mov    %rax,%rdi
    660c:	e8 67 f9 ff ff       	callq  5f78 <_ZN5boost10lock_errorC1Ev@plt>
    6611:	48 8b 15 c0 5c 10 00 	mov    1072320(%rip),%rdx        # 10c2d8 <_DYNAMIC+0x2a0>
    6618:	48 8b 35 11 5c 10 00 	mov    1072145(%rip),%rsi        # 10c230 <_DYNAMIC+0x1f8>
    661f:	48 89 ef             	mov    %rbp,%rdi
    6622:	e8 41 fa ff ff       	callq  6068 <__cxa_throw@plt>
    6627:	48 89 c3             	mov    %rax,%rbx
    662a:	48 89 ef             	mov    %rbp,%rdi
    662d:	e8 16 f6 ff ff       	callq  5c48 <__cxa_free_exception@plt>
    6632:	e9 3c ff ff ff       	jmpq   6573 <_ZN5boost7barrier4waitEv+0xa3>
    6637:	e9 28 ff ff ff       	jmpq   6564 <_ZN5boost7barrier4waitEv+0x94>
    663c:	90                   	nop    
    663d:	90                   	nop    
    663e:	90                   	nop    
    663f:	90                   	nop    

0000000000006640 <_ZNSt16invalid_argumentD1Ev>:
    6640:	48 83 ec 08          	sub    $0x8,%rsp
    6644:	48 8b 05 f5 5b 10 00 	mov    1072117(%rip),%rax        # 10c240 <_DYNAMIC+0x208>
    664b:	48 83 c0 10          	add    $0x10,%rax
    664f:	48 89 07             	mov    %rax,(%rdi)
    6652:	e8 e1 f5 ff ff       	callq  5c38 <_ZNSt11logic_errorD2Ev@plt>
    6657:	48 83 c4 08          	add    $0x8,%rsp
    665b:	c3                   	retq   
    665c:	90                   	nop    
    665d:	90                   	nop    
    665e:	90                   	nop    
    665f:	90                   	nop    

0000000000006660 <_ZNSt16invalid_argumentD0Ev>:
    6660:	48 8b 05 d9 5b 10 00 	mov    1072089(%rip),%rax        # 10c240 <_DYNAMIC+0x208>
    6667:	53                   	push   %rbx
    6668:	48 89 fb             	mov    %rdi,%rbx
    666b:	48 83 c0 10          	add    $0x10,%rax
    666f:	48 89 07             	mov    %rax,(%rdi)
    6672:	e8 c1 f5 ff ff       	callq  5c38 <_ZNSt11logic_errorD2Ev@plt>
    6677:	48 89 df             	mov    %rbx,%rdi
    667a:	e8 39 fa ff ff       	callq  60b8 <_ZdlPv@plt>
    667f:	5b                   	pop    %rbx
    6680:	c3                   	retq   
    6681:	90                   	nop    
    6682:	90                   	nop    
    6683:	90                   	nop    
    6684:	90                   	nop    
    6685:	90                   	nop    
    6686:	90                   	nop    
    6687:	90                   	nop    
    6688:	90                   	nop    
    6689:	90                   	nop    
    668a:	90                   	nop    
    668b:	90                   	nop    
    668c:	90                   	nop    
    668d:	90                   	nop    
    668e:	90                   	nop    
    668f:	90                   	nop    

0000000000006690 <_ZN5boost6detail14condition_implC1Ev>:
    6690:	48 89 5c 24 f0       	mov    %rbx,0xfffffffffffffff0(%rsp)
    6695:	48 89 6c 24 f8       	mov    %rbp,0xfffffffffffffff8(%rsp)
    669a:	31 f6                	xor    %esi,%esi
    669c:	48 83 ec 18          	sub    $0x18,%rsp
    66a0:	e8 33 f8 ff ff       	callq  5ed8 <pthread_cond_init@plt>
    66a5:	85 c0                	test   %eax,%eax
    66a7:	75 0f                	jne    66b8 <_ZN5boost6detail14condition_implC1Ev+0x28>
    66a9:	48 8b 5c 24 08       	mov    0x8(%rsp),%rbx
    66ae:	48 8b 6c 24 10       	mov    0x10(%rsp),%rbp
    66b3:	48 83 c4 18          	add    $0x18,%rsp
    66b7:	c3                   	retq   
    66b8:	bf 10 00 00 00       	mov    $0x10,%edi
    66bd:	e8 16 f7 ff ff       	callq  5dd8 <__cxa_allocate_exception@plt>
    66c2:	48 89 c3             	mov    %rax,%rbx
    66c5:	48 89 c7             	mov    %rax,%rdi
    66c8:	e8 0b fa ff ff       	callq  60d8 <_ZN5boost21thread_resource_errorC1Ev@plt>
    66cd:	48 8b 15 44 5b 10 00 	mov    1071940(%rip),%rdx        # 10c218 <_DYNAMIC+0x1e0>
    66d4:	48 8b 35 dd 5b 10 00 	mov    1072093(%rip),%rsi        # 10c2b8 <_DYNAMIC+0x280>
    66db:	48 89 df             	mov    %rbx,%rdi
    66de:	e8 85 f9 ff ff       	callq  6068 <__cxa_throw@plt>
    66e3:	48 89 df             	mov    %rbx,%rdi
    66e6:	48 89 c5             	mov    %rax,%rbp
    66e9:	e8 5a f5 ff ff       	callq  5c48 <__cxa_free_exception@plt>
    66ee:	48 89 ef             	mov    %rbp,%rdi
    66f1:	e8 42 f9 ff ff       	callq  6038 <_Unwind_Resume@plt>
    66f6:	48 89 c5             	mov    %rax,%rbp
    66f9:	eb f3                	jmp    66ee <_ZN5boost6detail14condition_implC1Ev+0x5e>
    66fb:	90                   	nop    
    66fc:	66 66 66 90          	xchg   %ax,%ax

0000000000006700 <_ZN5boost6detail14condition_implC2Ev>:
    6700:	48 89 5c 24 f0       	mov    %rbx,0xfffffffffffffff0(%rsp)
    6705:	48 89 6c 24 f8       	mov    %rbp,0xfffffffffffffff8(%rsp)
    670a:	31 f6                	xor    %esi,%esi
    670c:	48 83 ec 18          	sub    $0x18,%rsp
    6710:	e8 c3 f7 ff ff       	callq  5ed8 <pthread_cond_init@plt>
    6715:	85 c0                	test   %eax,%eax
    6717:	75 0f                	jne    6728 <_ZN5boost6detail14condition_implC2Ev+0x28>
    6719:	48 8b 5c 24 08       	mov    0x8(%rsp),%rbx
    671e:	48 8b 6c 24 10       	mov    0x10(%rsp),%rbp
    6723:	48 83 c4 18          	add    $0x18,%rsp
    6727:	c3                   	retq   
    6728:	bf 10 00 00 00       	mov    $0x10,%edi
    672d:	e8 a6 f6 ff ff       	callq  5dd8 <__cxa_allocate_exception@plt>
    6732:	48 89 c3             	mov    %rax,%rbx
    6735:	48 89 c7             	mov    %rax,%rdi
    6738:	e8 9b f9 ff ff       	callq  60d8 <_ZN5boost21thread_resource_errorC1Ev@plt>
    673d:	48 8b 15 d4 5a 10 00 	mov    1071828(%rip),%rdx        # 10c218 <_DYNAMIC+0x1e0>
    6744:	48 8b 35 6d 5b 10 00 	mov    1071981(%rip),%rsi        # 10c2b8 <_DYNAMIC+0x280>
    674b:	48 89 df             	mov    %rbx,%rdi
    674e:	e8 15 f9 ff ff       	callq  6068 <__cxa_throw@plt>
    6753:	48 89 df             	mov    %rbx,%rdi
    6756:	48 89 c5             	mov    %rax,%rbp
    6759:	e8 ea f4 ff ff       	callq  5c48 <__cxa_free_exception@plt>
    675e:	48 89 ef             	mov    %rbp,%rdi
    6761:	e8 d2 f8 ff ff       	callq  6038 <_Unwind_Resume@plt>
    6766:	48 89 c5             	mov    %rax,%rbp
    6769:	eb f3                	jmp    675e <_ZN5boost6detail14condition_implC2Ev+0x5e>
    676b:	90                   	nop    
    676c:	66 66 66 90          	xchg   %ax,%ax

0000000000006770 <_ZN5boost6detail14condition_implD1Ev>:
    6770:	48 83 ec 08          	sub    $0x8,%rsp
    6774:	e8 7f f8 ff ff       	callq  5ff8 <pthread_cond_destroy@plt>
    6779:	48 83 c4 08          	add    $0x8,%rsp
    677d:	c3                   	retq   
    677e:	66 90                	xchg   %ax,%ax

0000000000006780 <_ZN5boost6detail14condition_implD2Ev>:
    6780:	48 83 ec 08          	sub    $0x8,%rsp
    6784:	e8 6f f8 ff ff       	callq  5ff8 <pthread_cond_destroy@plt>
    6789:	48 83 c4 08          	add    $0x8,%rsp
    678d:	c3                   	retq   
    678e:	66 90                	xchg   %ax,%ax

0000000000006790 <_ZN5boost6detail14condition_impl10notify_oneEv>:
    6790:	e9 03 f7 ff ff       	jmpq   5e98 <pthread_cond_signal@plt>
    6795:	90                   	nop    
    6796:	66 66 66 90          	xchg   %ax,%ax
    679a:	66 66 90             	xchg   %ax,%ax
    679d:	66 66 90             	xchg   %ax,%ax

00000000000067a0 <_ZN5boost6detail14condition_impl10notify_allEv>:
    67a0:	e9 73 f7 ff ff       	jmpq   5f18 <pthread_cond_broadcast@plt>
    67a5:	90                   	nop    
    67a6:	66 66 66 90          	xchg   %ax,%ax
    67aa:	66 66 90             	xchg   %ax,%ax
    67ad:	66 66 90             	xchg   %ax,%ax

00000000000067b0 <_ZN5boost6detail14condition_impl7do_waitEP15pthread_mutex_t>:
    67b0:	e9 f3 f3 ff ff       	jmpq   5ba8 <pthread_cond_wait@plt>
    67b5:	90                   	nop    
    67b6:	66 66 66 90          	xchg   %ax,%ax
    67ba:	66 66 90             	xchg   %ax,%ax
    67bd:	66 66 90             	xchg   %ax,%ax

00000000000067c0 <_ZN5boost6detail14condition_impl13do_timed_waitERKNS_5xtimeEP15pthread_mutex_t>:
    67c0:	48 83 ec 18          	sub    $0x18,%rsp
    67c4:	48 63 4e 08          	movslq 0x8(%rsi),%rcx
    67c8:	49 89 d1             	mov    %rdx,%r9
    67cb:	49 89 e2             	mov    %rsp,%r10
    67ce:	4c 63 06             	movslq (%rsi),%r8
    67d1:	48 81 f9 ff c9 9a 3b 	cmp    $0x3b9ac9ff,%rcx
    67d8:	7e 4e                	jle    6828 <_ZN5boost6detail14condition_impl13do_timed_waitERKNS_5xtimeEP15pthread_mutex_t+0x68>
    67da:	48 89 c8             	mov    %rcx,%rax
    67dd:	49 bb b3 94 d6 26 e8 	mov    $0x112e0be826d694b3,%r11
    67e4:	0b 2e 11 
    67e7:	48 89 ce             	mov    %rcx,%rsi
    67ea:	49 f7 eb             	imul   %r11
    67ed:	48 c1 fe 3f          	sar    $0x3f,%rsi
    67f1:	48 c1 fa 1a          	sar    $0x1a,%rdx
    67f5:	48 29 f2             	sub    %rsi,%rdx
    67f8:	4c 89 ce             	mov    %r9,%rsi
    67fb:	49 8d 04 10          	lea    (%r8,%rdx,1),%rax
    67ff:	48 69 d2 00 ca 9a 3b 	imul   $0x3b9aca00,%rdx,%rdx
    6806:	48 89 04 24          	mov    %rax,(%rsp)
    680a:	48 29 d1             	sub    %rdx,%rcx
    680d:	4c 89 d2             	mov    %r10,%rdx
    6810:	48 89 4c 24 08       	mov    %rcx,0x8(%rsp)
    6815:	e8 9e f3 ff ff       	callq  5bb8 <pthread_cond_timedwait@plt>
    681a:	83 f8 6e             	cmp    $0x6e,%eax
    681d:	0f 95 c1             	setne  %cl
    6820:	48 83 c4 18          	add    $0x18,%rsp
    6824:	0f b6 c1             	movzbl %cl,%eax
    6827:	c3                   	retq   
    6828:	4c 89 d2             	mov    %r10,%rdx
    682b:	4c 89 ce             	mov    %r9,%rsi
    682e:	48 89 4c 24 08       	mov    %rcx,0x8(%rsp)
    6833:	4c 89 04 24          	mov    %r8,(%rsp)
    6837:	e8 7c f3 ff ff       	callq  5bb8 <pthread_cond_timedwait@plt>
    683c:	83 f8 6e             	cmp    $0x6e,%eax
    683f:	0f 95 c1             	setne  %cl
    6842:	48 83 c4 18          	add    $0x18,%rsp
    6846:	0f b6 c1             	movzbl %cl,%eax
    6849:	c3                   	retq   
    684a:	66 66 90             	xchg   %ax,%ax
    684d:	66 66 90             	xchg   %ax,%ax
    6850:	48 89 5c 24 f0       	mov    %rbx,0xfffffffffffffff0(%rsp)
    6855:	48 89 6c 24 f8       	mov    %rbp,0xfffffffffffffff8(%rsp)
    685a:	48 83 ec 18          	sub    $0x18,%rsp
    685e:	81 fe ff ff 00 00    	cmp    $0xffff,%esi
    6864:	89 fd                	mov    %edi,%ebp
    6866:	0f 94 c3             	sete   %bl
    6869:	83 ff 01             	cmp    $0x1,%edi
    686c:	0f 94 c0             	sete   %al
    686f:	84 d8                	test   %bl,%al
    6871:	75 3d                	jne    68b0 <_ZN5boost6detail14condition_impl13do_timed_waitERKNS_5xtimeEP15pthread_mutex_t+0xf0>
    6873:	85 ed                	test   %ebp,%ebp
    6875:	0f 94 c2             	sete   %dl
    6878:	84 da                	test   %bl,%dl
    687a:	75 14                	jne    6890 <_ZN5boost6detail14condition_impl13do_timed_waitERKNS_5xtimeEP15pthread_mutex_t+0xd0>
    687c:	48 8b 5c 24 08       	mov    0x8(%rsp),%rbx
    6881:	48 8b 6c 24 10       	mov    0x10(%rsp),%rbp
    6886:	48 83 c4 18          	add    $0x18,%rsp
    688a:	c3                   	retq   
    688b:	66 66 90             	xchg   %ax,%ax
    688e:	66 90                	xchg   %ax,%ax
    6890:	48 8d 3d 55 60 10 00 	lea    1073237(%rip),%rdi        # 10c8ec <__bss_start+0x4>
    6897:	48 8b 5c 24 08       	mov    0x8(%rsp),%rbx
    689c:	48 8b 6c 24 10       	mov    0x10(%rsp),%rbp
    68a1:	48 83 c4 18          	add    $0x18,%rsp
    68a5:	e9 1e f8 ff ff       	jmpq   60c8 <_ZNSt8ios_base4InitD1Ev@plt>
    68aa:	66 66 90             	xchg   %ax,%ax
    68ad:	66 66 90             	xchg   %ax,%ax
    68b0:	48 8d 3d 35 60 10 00 	lea    1073205(%rip),%rdi        # 10c8ec <__bss_start+0x4>
    68b7:	e8 5c f3 ff ff       	callq  5c18 <_ZNSt8ios_base4InitC1Ev@plt>
    68bc:	eb b5                	jmp    6873 <_ZN5boost6detail14condition_impl13do_timed_waitERKNS_5xtimeEP15pthread_mutex_t+0xb3>
    68be:	66 90                	xchg   %ax,%ax
    68c0:	be ff ff 00 00       	mov    $0xffff,%esi
    68c5:	bf 01 00 00 00       	mov    $0x1,%edi
    68ca:	eb 84                	jmp    6850 <_ZN5boost6detail14condition_impl13do_timed_waitERKNS_5xtimeEP15pthread_mutex_t+0x90>
    68cc:	66 66 66 90          	xchg   %ax,%ax
    68d0:	be ff ff 00 00       	mov    $0xffff,%esi
    68d5:	31 ff                	xor    %edi,%edi
    68d7:	e9 74 ff ff ff       	jmpq   6850 <_ZN5boost6detail14condition_impl13do_timed_waitERKNS_5xtimeEP15pthread_mutex_t+0x90>
    68dc:	90                   	nop    
    68dd:	90                   	nop    
    68de:	90                   	nop    
    68df:	90                   	nop    

00000000000068e0 <_ZN5boost16thread_exceptionC2Ev>:
    68e0:	48 8b 05 b9 59 10 00 	mov    1071545(%rip),%rax        # 10c2a0 <_DYNAMIC+0x268>
    68e7:	c7 47 08 00 00 00 00 	movl   $0x0,0x8(%rdi)
    68ee:	48 83 c0 10          	add    $0x10,%rax
    68f2:	48 89 07             	mov    %rax,(%rdi)
    68f5:	c3                   	retq   
    68f6:	66 66 66 90          	xchg   %ax,%ax
    68fa:	66 66 90             	xchg   %ax,%ax
    68fd:	66 66 90             	xchg   %ax,%ax

0000000000006900 <_ZN5boost16thread_exceptionC1Ev>:
    6900:	48 8b 05 99 59 10 00 	mov    1071513(%rip),%rax        # 10c2a0 <_DYNAMIC+0x268>
    6907:	c7 47 08 00 00 00 00 	movl   $0x0,0x8(%rdi)
    690e:	48 83 c0 10          	add    $0x10,%rax
    6912:	48 89 07             	mov    %rax,(%rdi)
    6915:	c3                   	retq   
    6916:	66 66 66 90          	xchg   %ax,%ax
    691a:	66 66 90             	xchg   %ax,%ax
    691d:	66 66 90             	xchg   %ax,%ax

0000000000006920 <_ZN5boost16thread_exceptionC2Ei>:
    6920:	48 8b 05 79 59 10 00 	mov    1071481(%rip),%rax        # 10c2a0 <_DYNAMIC+0x268>
    6927:	89 77 08             	mov    %esi,0x8(%rdi)
    692a:	48 83 c0 10          	add    $0x10,%rax
    692e:	48 89 07             	mov    %rax,(%rdi)
    6931:	c3                   	retq   
    6932:	66 66 66 90          	xchg   %ax,%ax
    6936:	66 66 66 90          	xchg   %ax,%ax
    693a:	66 66 90             	xchg   %ax,%ax
    693d:	66 66 90             	xchg   %ax,%ax

0000000000006940 <_ZN5boost16thread_exceptionC1Ei>:
    6940:	48 8b 05 59 59 10 00 	mov    1071449(%rip),%rax        # 10c2a0 <_DYNAMIC+0x268>
    6947:	89 77 08             	mov    %esi,0x8(%rdi)
    694a:	48 83 c0 10          	add    $0x10,%rax
    694e:	48 89 07             	mov    %rax,(%rdi)
    6951:	c3                   	retq   
    6952:	66 66 66 90          	xchg   %ax,%ax
    6956:	66 66 66 90          	xchg   %ax,%ax
    695a:	66 66 90             	xchg   %ax,%ax
    695d:	66 66 90             	xchg   %ax,%ax

0000000000006960 <_ZN5boost16thread_exceptionD2Ev>:
    6960:	48 83 ec 08          	sub    $0x8,%rsp
    6964:	48 8b 05 35 59 10 00 	mov    1071413(%rip),%rax        # 10c2a0 <_DYNAMIC+0x268>
    696b:	48 83 c0 10          	add    $0x10,%rax
    696f:	48 89 07             	mov    %rax,(%rdi)
    6972:	e8 f1 f5 ff ff       	callq  5f68 <_ZNSt9exceptionD2Ev@plt>
    6977:	48 83 c4 08          	add    $0x8,%rsp
    697b:	c3                   	retq   
    697c:	66 66 66 90          	xchg   %ax,%ax

0000000000006980 <_ZN5boost16thread_exceptionD1Ev>:
    6980:	48 83 ec 08          	sub    $0x8,%rsp
    6984:	48 8b 05 15 59 10 00 	mov    1071381(%rip),%rax        # 10c2a0 <_DYNAMIC+0x268>
    698b:	48 83 c0 10          	add    $0x10,%rax
    698f:	48 89 07             	mov    %rax,(%rdi)
    6992:	e8 d1 f5 ff ff       	callq  5f68 <_ZNSt9exceptionD2Ev@plt>
    6997:	48 83 c4 08          	add    $0x8,%rsp
    699b:	c3                   	retq   
    699c:	66 66 66 90          	xchg   %ax,%ax

00000000000069a0 <_ZN5boost16thread_exceptionD0Ev>:
    69a0:	48 8b 05 f9 58 10 00 	mov    1071353(%rip),%rax        # 10c2a0 <_DYNAMIC+0x268>
    69a7:	53                   	push   %rbx
    69a8:	48 89 fb             	mov    %rdi,%rbx
    69ab:	48 83 c0 10          	add    $0x10,%rax
    69af:	48 89 07             	mov    %rax,(%rdi)
    69b2:	e8 b1 f5 ff ff       	callq  5f68 <_ZNSt9exceptionD2Ev@plt>
    69b7:	48 89 df             	mov    %rbx,%rdi
    69ba:	e8 f9 f6 ff ff       	callq  60b8 <_ZdlPv@plt>
    69bf:	5b                   	pop    %rbx
    69c0:	c3                   	retq   
    69c1:	90                   	nop    
    69c2:	66 66 66 90          	xchg   %ax,%ax
    69c6:	66 66 66 90          	xchg   %ax,%ax
    69ca:	66 66 90             	xchg   %ax,%ax
    69cd:	66 66 90             	xchg   %ax,%ax

00000000000069d0 <_ZNK5boost16thread_exception12native_errorEv>:
    69d0:	8b 47 08             	mov    0x8(%rdi),%eax
    69d3:	c3                   	retq   
    69d4:	66 66 66 90          	xchg   %ax,%ax
    69d8:	66 66 66 90          	xchg   %ax,%ax
    69dc:	66 66 66 90          	xchg   %ax,%ax

00000000000069e0 <_ZN5boost10lock_errorC2Ev>:
    69e0:	53                   	push   %rbx
    69e1:	48 89 fb             	mov    %rdi,%rbx
    69e4:	e8 df f5 ff ff       	callq  5fc8 <_ZN5boost16thread_exceptionC2Ev@plt>
    69e9:	48 8b 05 60 58 10 00 	mov    1071200(%rip),%rax        # 10c250 <_DYNAMIC+0x218>
    69f0:	48 83 c0 10          	add    $0x10,%rax
    69f4:	48 89 03             	mov    %rax,(%rbx)
    69f7:	5b                   	pop    %rbx
    69f8:	c3                   	retq   
    69f9:	90                   	nop    
    69fa:	66 66 90             	xchg   %ax,%ax
    69fd:	66 66 90             	xchg   %ax,%ax

0000000000006a00 <_ZN5boost10lock_errorC1Ev>:
    6a00:	53                   	push   %rbx
    6a01:	48 89 fb             	mov    %rdi,%rbx
    6a04:	e8 bf f5 ff ff       	callq  5fc8 <_ZN5boost16thread_exceptionC2Ev@plt>
    6a09:	48 8b 05 40 58 10 00 	mov    1071168(%rip),%rax        # 10c250 <_DYNAMIC+0x218>
    6a10:	48 83 c0 10          	add    $0x10,%rax
    6a14:	48 89 03             	mov    %rax,(%rbx)
    6a17:	5b                   	pop    %rbx
    6a18:	c3                   	retq   
    6a19:	90                   	nop    
    6a1a:	66 66 90             	xchg   %ax,%ax
    6a1d:	66 66 90             	xchg   %ax,%ax

0000000000006a20 <_ZN5boost10lock_errorC2Ei>:
    6a20:	53                   	push   %rbx
    6a21:	48 89 fb             	mov    %rdi,%rbx
    6a24:	e8 6f f3 ff ff       	callq  5d98 <_ZN5boost16thread_exceptionC2Ei@plt>
    6a29:	48 8b 05 20 58 10 00 	mov    1071136(%rip),%rax        # 10c250 <_DYNAMIC+0x218>
    6a30:	48 83 c0 10          	add    $0x10,%rax
    6a34:	48 89 03             	mov    %rax,(%rbx)
    6a37:	5b                   	pop    %rbx
    6a38:	c3                   	retq   
    6a39:	90                   	nop    
    6a3a:	66 66 90             	xchg   %ax,%ax
    6a3d:	66 66 90             	xchg   %ax,%ax

0000000000006a40 <_ZN5boost10lock_errorC1Ei>:
    6a40:	53                   	push   %rbx
    6a41:	48 89 fb             	mov    %rdi,%rbx
    6a44:	e8 4f f3 ff ff       	callq  5d98 <_ZN5boost16thread_exceptionC2Ei@plt>
    6a49:	48 8b 05 00 58 10 00 	mov    1071104(%rip),%rax        # 10c250 <_DYNAMIC+0x218>
    6a50:	48 83 c0 10          	add    $0x10,%rax
    6a54:	48 89 03             	mov    %rax,(%rbx)
    6a57:	5b                   	pop    %rbx
    6a58:	c3                   	retq   
    6a59:	90                   	nop    
    6a5a:	66 66 90             	xchg   %ax,%ax
    6a5d:	66 66 90             	xchg   %ax,%ax

0000000000006a60 <_ZN5boost10lock_errorD2Ev>:
    6a60:	48 83 ec 08          	sub    $0x8,%rsp
    6a64:	48 8b 05 e5 57 10 00 	mov    1071077(%rip),%rax        # 10c250 <_DYNAMIC+0x218>
    6a6b:	48 83 c0 10          	add    $0x10,%rax
    6a6f:	48 89 07             	mov    %rax,(%rdi)
    6a72:	e8 41 f3 ff ff       	callq  5db8 <_ZN5boost16thread_exceptionD2Ev@plt>
    6a77:	48 83 c4 08          	add    $0x8,%rsp
    6a7b:	c3                   	retq   
    6a7c:	66 66 66 90          	xchg   %ax,%ax

0000000000006a80 <_ZN5boost10lock_errorD1Ev>:
    6a80:	48 83 ec 08          	sub    $0x8,%rsp
    6a84:	48 8b 05 c5 57 10 00 	mov    1071045(%rip),%rax        # 10c250 <_DYNAMIC+0x218>
    6a8b:	48 83 c0 10          	add    $0x10,%rax
    6a8f:	48 89 07             	mov    %rax,(%rdi)
    6a92:	e8 21 f3 ff ff       	callq  5db8 <_ZN5boost16thread_exceptionD2Ev@plt>
    6a97:	48 83 c4 08          	add    $0x8,%rsp
    6a9b:	c3                   	retq   
    6a9c:	66 66 66 90          	xchg   %ax,%ax

0000000000006aa0 <_ZN5boost10lock_errorD0Ev>:
    6aa0:	48 8b 05 a9 57 10 00 	mov    1071017(%rip),%rax        # 10c250 <_DYNAMIC+0x218>
    6aa7:	53                   	push   %rbx
    6aa8:	48 89 fb             	mov    %rdi,%rbx
    6aab:	48 83 c0 10          	add    $0x10,%rax
    6aaf:	48 89 07             	mov    %rax,(%rdi)
    6ab2:	e8 01 f3 ff ff       	callq  5db8 <_ZN5boost16thread_exceptionD2Ev@plt>
    6ab7:	48 89 df             	mov    %rbx,%rdi
    6aba:	e8 f9 f5 ff ff       	callq  60b8 <_ZdlPv@plt>
    6abf:	5b                   	pop    %rbx
    6ac0:	c3                   	retq   
    6ac1:	90                   	nop    
    6ac2:	66 66 66 90          	xchg   %ax,%ax
    6ac6:	66 66 66 90          	xchg   %ax,%ax
    6aca:	66 66 90             	xchg   %ax,%ax
    6acd:	66 66 90             	xchg   %ax,%ax

0000000000006ad0 <_ZNK5boost10lock_error4whatEv>:
    6ad0:	48 8d 05 8b 35 00 00 	lea    13707(%rip),%rax        # a062 <_ZTSN5boost23thread_permission_errorE+0x22>
    6ad7:	c3                   	retq   
    6ad8:	66 66 66 90          	xchg   %ax,%ax
    6adc:	66 66 66 90          	xchg   %ax,%ax

0000000000006ae0 <_ZN5boost21thread_resource_errorC2Ev>:
    6ae0:	53                   	push   %rbx
    6ae1:	48 89 fb             	mov    %rdi,%rbx
    6ae4:	e8 df f4 ff ff       	callq  5fc8 <_ZN5boost16thread_exceptionC2Ev@plt>
    6ae9:	48 8b 05 48 57 10 00 	mov    1070920(%rip),%rax        # 10c238 <_DYNAMIC+0x200>
    6af0:	48 83 c0 10          	add    $0x10,%rax
    6af4:	48 89 03             	mov    %rax,(%rbx)
    6af7:	5b                   	pop    %rbx
    6af8:	c3                   	retq   
    6af9:	90                   	nop    
    6afa:	66 66 90             	xchg   %ax,%ax
    6afd:	66 66 90             	xchg   %ax,%ax

0000000000006b00 <_ZN5boost21thread_resource_errorC1Ev>:
    6b00:	53                   	push   %rbx
    6b01:	48 89 fb             	mov    %rdi,%rbx
    6b04:	e8 bf f4 ff ff       	callq  5fc8 <_ZN5boost16thread_exceptionC2Ev@plt>
    6b09:	48 8b 05 28 57 10 00 	mov    1070888(%rip),%rax        # 10c238 <_DYNAMIC+0x200>
    6b10:	48 83 c0 10          	add    $0x10,%rax
    6b14:	48 89 03             	mov    %rax,(%rbx)
    6b17:	5b                   	pop    %rbx
    6b18:	c3                   	retq   
    6b19:	90                   	nop    
    6b1a:	66 66 90             	xchg   %ax,%ax
    6b1d:	66 66 90             	xchg   %ax,%ax

0000000000006b20 <_ZN5boost21thread_resource_errorC2Ei>:
    6b20:	53                   	push   %rbx
    6b21:	48 89 fb             	mov    %rdi,%rbx
    6b24:	e8 6f f2 ff ff       	callq  5d98 <_ZN5boost16thread_exceptionC2Ei@plt>
    6b29:	48 8b 05 08 57 10 00 	mov    1070856(%rip),%rax        # 10c238 <_DYNAMIC+0x200>
    6b30:	48 83 c0 10          	add    $0x10,%rax
    6b34:	48 89 03             	mov    %rax,(%rbx)
    6b37:	5b                   	pop    %rbx
    6b38:	c3                   	retq   
    6b39:	90                   	nop    
    6b3a:	66 66 90             	xchg   %ax,%ax
    6b3d:	66 66 90             	xchg   %ax,%ax

0000000000006b40 <_ZN5boost21thread_resource_errorC1Ei>:
    6b40:	53                   	push   %rbx
    6b41:	48 89 fb             	mov    %rdi,%rbx
    6b44:	e8 4f f2 ff ff       	callq  5d98 <_ZN5boost16thread_exceptionC2Ei@plt>
    6b49:	48 8b 05 e8 56 10 00 	mov    1070824(%rip),%rax        # 10c238 <_DYNAMIC+0x200>
    6b50:	48 83 c0 10          	add    $0x10,%rax
    6b54:	48 89 03             	mov    %rax,(%rbx)
    6b57:	5b                   	pop    %rbx
    6b58:	c3                   	retq   
    6b59:	90                   	nop    
    6b5a:	66 66 90             	xchg   %ax,%ax
    6b5d:	66 66 90             	xchg   %ax,%ax

0000000000006b60 <_ZN5boost21thread_resource_errorD2Ev>:
    6b60:	48 83 ec 08          	sub    $0x8,%rsp
    6b64:	48 8b 05 cd 56 10 00 	mov    1070797(%rip),%rax        # 10c238 <_DYNAMIC+0x200>
    6b6b:	48 83 c0 10          	add    $0x10,%rax
    6b6f:	48 89 07             	mov    %rax,(%rdi)
    6b72:	e8 41 f2 ff ff       	callq  5db8 <_ZN5boost16thread_exceptionD2Ev@plt>
    6b77:	48 83 c4 08          	add    $0x8,%rsp
    6b7b:	c3                   	retq   
    6b7c:	66 66 66 90          	xchg   %ax,%ax

0000000000006b80 <_ZN5boost21thread_resource_errorD1Ev>:
    6b80:	48 83 ec 08          	sub    $0x8,%rsp
    6b84:	48 8b 05 ad 56 10 00 	mov    1070765(%rip),%rax        # 10c238 <_DYNAMIC+0x200>
    6b8b:	48 83 c0 10          	add    $0x10,%rax
    6b8f:	48 89 07             	mov    %rax,(%rdi)
    6b92:	e8 21 f2 ff ff       	callq  5db8 <_ZN5boost16thread_exceptionD2Ev@plt>
    6b97:	48 83 c4 08          	add    $0x8,%rsp
    6b9b:	c3                   	retq   
    6b9c:	66 66 66 90          	xchg   %ax,%ax

0000000000006ba0 <_ZN5boost21thread_resource_errorD0Ev>:
    6ba0:	48 8b 05 91 56 10 00 	mov    1070737(%rip),%rax        # 10c238 <_DYNAMIC+0x200>
    6ba7:	53                   	push   %rbx
    6ba8:	48 89 fb             	mov    %rdi,%rbx
    6bab:	48 83 c0 10          	add    $0x10,%rax
    6baf:	48 89 07             	mov    %rax,(%rdi)
    6bb2:	e8 01 f2 ff ff       	callq  5db8 <_ZN5boost16thread_exceptionD2Ev@plt>
    6bb7:	48 89 df             	mov    %rbx,%rdi
    6bba:	e8 f9 f4 ff ff       	callq  60b8 <_ZdlPv@plt>
    6bbf:	5b                   	pop    %rbx
    6bc0:	c3                   	retq   
    6bc1:	90                   	nop    
    6bc2:	66 66 66 90          	xchg   %ax,%ax
    6bc6:	66 66 66 90          	xchg   %ax,%ax
    6bca:	66 66 90             	xchg   %ax,%ax
    6bcd:	66 66 90             	xchg   %ax,%ax

0000000000006bd0 <_ZNK5boost21thread_resource_error4whatEv>:
    6bd0:	48 8d 05 9d 34 00 00 	lea    13469(%rip),%rax        # a074 <_ZTSN5boost23thread_permission_errorE+0x34>
    6bd7:	c3                   	retq   
    6bd8:	66 66 66 90          	xchg   %ax,%ax
    6bdc:	66 66 66 90          	xchg   %ax,%ax

0000000000006be0 <_ZN5boost25unsupported_thread_optionC2Ev>:
    6be0:	53                   	push   %rbx
    6be1:	48 89 fb             	mov    %rdi,%rbx
    6be4:	e8 df f3 ff ff       	callq  5fc8 <_ZN5boost16thread_exceptionC2Ev@plt>
    6be9:	48 8b 05 88 56 10 00 	mov    1070728(%rip),%rax        # 10c278 <_DYNAMIC+0x240>
    6bf0:	48 83 c0 10          	add    $0x10,%rax
    6bf4:	48 89 03             	mov    %rax,(%rbx)
    6bf7:	5b                   	pop    %rbx
    6bf8:	c3                   	retq   
    6bf9:	90                   	nop    
    6bfa:	66 66 90             	xchg   %ax,%ax
    6bfd:	66 66 90             	xchg   %ax,%ax

0000000000006c00 <_ZN5boost25unsupported_thread_optionC1Ev>:
    6c00:	53                   	push   %rbx
    6c01:	48 89 fb             	mov    %rdi,%rbx
    6c04:	e8 bf f3 ff ff       	callq  5fc8 <_ZN5boost16thread_exceptionC2Ev@plt>
    6c09:	48 8b 05 68 56 10 00 	mov    1070696(%rip),%rax        # 10c278 <_DYNAMIC+0x240>
    6c10:	48 83 c0 10          	add    $0x10,%rax
    6c14:	48 89 03             	mov    %rax,(%rbx)
    6c17:	5b                   	pop    %rbx
    6c18:	c3                   	retq   
    6c19:	90                   	nop    
    6c1a:	66 66 90             	xchg   %ax,%ax
    6c1d:	66 66 90             	xchg   %ax,%ax

0000000000006c20 <_ZN5boost25unsupported_thread_optionC2Ei>:
    6c20:	53                   	push   %rbx
    6c21:	48 89 fb             	mov    %rdi,%rbx
    6c24:	e8 6f f1 ff ff       	callq  5d98 <_ZN5boost16thread_exceptionC2Ei@plt>
    6c29:	48 8b 05 48 56 10 00 	mov    1070664(%rip),%rax        # 10c278 <_DYNAMIC+0x240>
    6c30:	48 83 c0 10          	add    $0x10,%rax
    6c34:	48 89 03             	mov    %rax,(%rbx)
    6c37:	5b                   	pop    %rbx
    6c38:	c3                   	retq   
    6c39:	90                   	nop    
    6c3a:	66 66 90             	xchg   %ax,%ax
    6c3d:	66 66 90             	xchg   %ax,%ax

0000000000006c40 <_ZN5boost25unsupported_thread_optionC1Ei>:
    6c40:	53                   	push   %rbx
    6c41:	48 89 fb             	mov    %rdi,%rbx
    6c44:	e8 4f f1 ff ff       	callq  5d98 <_ZN5boost16thread_exceptionC2Ei@plt>
    6c49:	48 8b 05 28 56 10 00 	mov    1070632(%rip),%rax        # 10c278 <_DYNAMIC+0x240>
    6c50:	48 83 c0 10          	add    $0x10,%rax
    6c54:	48 89 03             	mov    %rax,(%rbx)
    6c57:	5b                   	pop    %rbx
    6c58:	c3                   	retq   
    6c59:	90                   	nop    
    6c5a:	66 66 90             	xchg   %ax,%ax
    6c5d:	66 66 90             	xchg   %ax,%ax

0000000000006c60 <_ZN5boost25unsupported_thread_optionD2Ev>:
    6c60:	48 83 ec 08          	sub    $0x8,%rsp
    6c64:	48 8b 05 0d 56 10 00 	mov    1070605(%rip),%rax        # 10c278 <_DYNAMIC+0x240>
    6c6b:	48 83 c0 10          	add    $0x10,%rax
    6c6f:	48 89 07             	mov    %rax,(%rdi)
    6c72:	e8 41 f1 ff ff       	callq  5db8 <_ZN5boost16thread_exceptionD2Ev@plt>
    6c77:	48 83 c4 08          	add    $0x8,%rsp
    6c7b:	c3                   	retq   
    6c7c:	66 66 66 90          	xchg   %ax,%ax

0000000000006c80 <_ZN5boost25unsupported_thread_optionD1Ev>:
    6c80:	48 83 ec 08          	sub    $0x8,%rsp
    6c84:	48 8b 05 ed 55 10 00 	mov    1070573(%rip),%rax        # 10c278 <_DYNAMIC+0x240>
    6c8b:	48 83 c0 10          	add    $0x10,%rax
    6c8f:	48 89 07             	mov    %rax,(%rdi)
    6c92:	e8 21 f1 ff ff       	callq  5db8 <_ZN5boost16thread_exceptionD2Ev@plt>
    6c97:	48 83 c4 08          	add    $0x8,%rsp
    6c9b:	c3                   	retq   
    6c9c:	66 66 66 90          	xchg   %ax,%ax

0000000000006ca0 <_ZN5boost25unsupported_thread_optionD0Ev>:
    6ca0:	48 8b 05 d1 55 10 00 	mov    1070545(%rip),%rax        # 10c278 <_DYNAMIC+0x240>
    6ca7:	53                   	push   %rbx
    6ca8:	48 89 fb             	mov    %rdi,%rbx
    6cab:	48 83 c0 10          	add    $0x10,%rax
    6caf:	48 89 07             	mov    %rax,(%rdi)
    6cb2:	e8 01 f1 ff ff       	callq  5db8 <_ZN5boost16thread_exceptionD2Ev@plt>
    6cb7:	48 89 df             	mov    %rbx,%rdi
    6cba:	e8 f9 f3 ff ff       	callq  60b8 <_ZdlPv@plt>
    6cbf:	5b                   	pop    %rbx
    6cc0:	c3                   	retq   
    6cc1:	90                   	nop    
    6cc2:	66 66 66 90          	xchg   %ax,%ax
    6cc6:	66 66 66 90          	xchg   %ax,%ax
    6cca:	66 66 90             	xchg   %ax,%ax
    6ccd:	66 66 90             	xchg   %ax,%ax

0000000000006cd0 <_ZNK5boost25unsupported_thread_option4whatEv>:
    6cd0:	48 8d 05 c1 33 00 00 	lea    13249(%rip),%rax        # a098 <_ZTSN5boost23thread_permission_errorE+0x58>
    6cd7:	c3                   	retq   
    6cd8:	66 66 66 90          	xchg   %ax,%ax
    6cdc:	66 66 66 90          	xchg   %ax,%ax

0000000000006ce0 <_ZN5boost23invalid_thread_argumentC2Ev>:
    6ce0:	53                   	push   %rbx
    6ce1:	48 89 fb             	mov    %rdi,%rbx
    6ce4:	e8 df f2 ff ff       	callq  5fc8 <_ZN5boost16thread_exceptionC2Ev@plt>
    6ce9:	48 8b 05 90 55 10 00 	mov    1070480(%rip),%rax        # 10c280 <_DYNAMIC+0x248>
    6cf0:	48 83 c0 10          	add    $0x10,%rax
    6cf4:	48 89 03             	mov    %rax,(%rbx)
    6cf7:	5b                   	pop    %rbx
    6cf8:	c3                   	retq   
    6cf9:	90                   	nop    
    6cfa:	66 66 90             	xchg   %ax,%ax
    6cfd:	66 66 90             	xchg   %ax,%ax

0000000000006d00 <_ZN5boost23invalid_thread_argumentC1Ev>:
    6d00:	53                   	push   %rbx
    6d01:	48 89 fb             	mov    %rdi,%rbx
    6d04:	e8 bf f2 ff ff       	callq  5fc8 <_ZN5boost16thread_exceptionC2Ev@plt>
    6d09:	48 8b 05 70 55 10 00 	mov    1070448(%rip),%rax        # 10c280 <_DYNAMIC+0x248>
    6d10:	48 83 c0 10          	add    $0x10,%rax
    6d14:	48 89 03             	mov    %rax,(%rbx)
    6d17:	5b                   	pop    %rbx
    6d18:	c3                   	retq   
    6d19:	90                   	nop    
    6d1a:	66 66 90             	xchg   %ax,%ax
    6d1d:	66 66 90             	xchg   %ax,%ax

0000000000006d20 <_ZN5boost23invalid_thread_argumentC2Ei>:
    6d20:	53                   	push   %rbx
    6d21:	48 89 fb             	mov    %rdi,%rbx
    6d24:	e8 6f f0 ff ff       	callq  5d98 <_ZN5boost16thread_exceptionC2Ei@plt>
    6d29:	48 8b 05 50 55 10 00 	mov    1070416(%rip),%rax        # 10c280 <_DYNAMIC+0x248>
    6d30:	48 83 c0 10          	add    $0x10,%rax
    6d34:	48 89 03             	mov    %rax,(%rbx)
    6d37:	5b                   	pop    %rbx
    6d38:	c3                   	retq   
    6d39:	90                   	nop    
    6d3a:	66 66 90             	xchg   %ax,%ax
    6d3d:	66 66 90             	xchg   %ax,%ax

0000000000006d40 <_ZN5boost23invalid_thread_argumentC1Ei>:
    6d40:	53                   	push   %rbx
    6d41:	48 89 fb             	mov    %rdi,%rbx
    6d44:	e8 4f f0 ff ff       	callq  5d98 <_ZN5boost16thread_exceptionC2Ei@plt>
    6d49:	48 8b 05 30 55 10 00 	mov    1070384(%rip),%rax        # 10c280 <_DYNAMIC+0x248>
    6d50:	48 83 c0 10          	add    $0x10,%rax
    6d54:	48 89 03             	mov    %rax,(%rbx)
    6d57:	5b                   	pop    %rbx
    6d58:	c3                   	retq   
    6d59:	90                   	nop    
    6d5a:	66 66 90             	xchg   %ax,%ax
    6d5d:	66 66 90             	xchg   %ax,%ax

0000000000006d60 <_ZN5boost23invalid_thread_argumentD2Ev>:
    6d60:	48 83 ec 08          	sub    $0x8,%rsp
    6d64:	48 8b 05 15 55 10 00 	mov    1070357(%rip),%rax        # 10c280 <_DYNAMIC+0x248>
    6d6b:	48 83 c0 10          	add    $0x10,%rax
    6d6f:	48 89 07             	mov    %rax,(%rdi)
    6d72:	e8 41 f0 ff ff       	callq  5db8 <_ZN5boost16thread_exceptionD2Ev@plt>
    6d77:	48 83 c4 08          	add    $0x8,%rsp
    6d7b:	c3                   	retq   
    6d7c:	66 66 66 90          	xchg   %ax,%ax

0000000000006d80 <_ZN5boost23invalid_thread_argumentD1Ev>:
    6d80:	48 83 ec 08          	sub    $0x8,%rsp
    6d84:	48 8b 05 f5 54 10 00 	mov    1070325(%rip),%rax        # 10c280 <_DYNAMIC+0x248>
    6d8b:	48 83 c0 10          	add    $0x10,%rax
    6d8f:	48 89 07             	mov    %rax,(%rdi)
    6d92:	e8 21 f0 ff ff       	callq  5db8 <_ZN5boost16thread_exceptionD2Ev@plt>
    6d97:	48 83 c4 08          	add    $0x8,%rsp
    6d9b:	c3                   	retq   
    6d9c:	66 66 66 90          	xchg   %ax,%ax

0000000000006da0 <_ZN5boost23invalid_thread_argumentD0Ev>:
    6da0:	48 8b 05 d9 54 10 00 	mov    1070297(%rip),%rax        # 10c280 <_DYNAMIC+0x248>
    6da7:	53                   	push   %rbx
    6da8:	48 89 fb             	mov    %rdi,%rbx
    6dab:	48 83 c0 10          	add    $0x10,%rax
    6daf:	48 89 07             	mov    %rax,(%rdi)
    6db2:	e8 01 f0 ff ff       	callq  5db8 <_ZN5boost16thread_exceptionD2Ev@plt>
    6db7:	48 89 df             	mov    %rbx,%rdi
    6dba:	e8 f9 f2 ff ff       	callq  60b8 <_ZdlPv@plt>
    6dbf:	5b                   	pop    %rbx
    6dc0:	c3                   	retq   
    6dc1:	90                   	nop    
    6dc2:	66 66 66 90          	xchg   %ax,%ax
    6dc6:	66 66 66 90          	xchg   %ax,%ax
    6dca:	66 66 90             	xchg   %ax,%ax
    6dcd:	66 66 90             	xchg   %ax,%ax

0000000000006dd0 <_ZNK5boost23invalid_thread_argument4whatEv>:
    6dd0:	48 8d 05 e9 32 00 00 	lea    13033(%rip),%rax        # a0c0 <_ZTSN5boost23thread_permission_errorE+0x80>
    6dd7:	c3                   	retq   
    6dd8:	66 66 66 90          	xchg   %ax,%ax
    6ddc:	66 66 66 90          	xchg   %ax,%ax

0000000000006de0 <_ZN5boost23thread_permission_errorC2Ev>:
    6de0:	53                   	push   %rbx
    6de1:	48 89 fb             	mov    %rdi,%rbx
    6de4:	e8 df f1 ff ff       	callq  5fc8 <_ZN5boost16thread_exceptionC2Ev@plt>
    6de9:	48 8b 05 80 54 10 00 	mov    1070208(%rip),%rax        # 10c270 <_DYNAMIC+0x238>
    6df0:	48 83 c0 10          	add    $0x10,%rax
    6df4:	48 89 03             	mov    %rax,(%rbx)
    6df7:	5b                   	pop    %rbx
    6df8:	c3                   	retq   
    6df9:	90                   	nop    
    6dfa:	66 66 90             	xchg   %ax,%ax
    6dfd:	66 66 90             	xchg   %ax,%ax

0000000000006e00 <_ZN5boost23thread_permission_errorC1Ev>:
    6e00:	53                   	push   %rbx
    6e01:	48 89 fb             	mov    %rdi,%rbx
    6e04:	e8 bf f1 ff ff       	callq  5fc8 <_ZN5boost16thread_exceptionC2Ev@plt>
    6e09:	48 8b 05 60 54 10 00 	mov    1070176(%rip),%rax        # 10c270 <_DYNAMIC+0x238>
    6e10:	48 83 c0 10          	add    $0x10,%rax
    6e14:	48 89 03             	mov    %rax,(%rbx)
    6e17:	5b                   	pop    %rbx
    6e18:	c3                   	retq   
    6e19:	90                   	nop    
    6e1a:	66 66 90             	xchg   %ax,%ax
    6e1d:	66 66 90             	xchg   %ax,%ax

0000000000006e20 <_ZN5boost23thread_permission_errorC2Ei>:
    6e20:	53                   	push   %rbx
    6e21:	48 89 fb             	mov    %rdi,%rbx
    6e24:	e8 6f ef ff ff       	callq  5d98 <_ZN5boost16thread_exceptionC2Ei@plt>
    6e29:	48 8b 05 40 54 10 00 	mov    1070144(%rip),%rax        # 10c270 <_DYNAMIC+0x238>
    6e30:	48 83 c0 10          	add    $0x10,%rax
    6e34:	48 89 03             	mov    %rax,(%rbx)
    6e37:	5b                   	pop    %rbx
    6e38:	c3                   	retq   
    6e39:	90                   	nop    
    6e3a:	66 66 90             	xchg   %ax,%ax
    6e3d:	66 66 90             	xchg   %ax,%ax

0000000000006e40 <_ZN5boost23thread_permission_errorC1Ei>:
    6e40:	53                   	push   %rbx
    6e41:	48 89 fb             	mov    %rdi,%rbx
    6e44:	e8 4f ef ff ff       	callq  5d98 <_ZN5boost16thread_exceptionC2Ei@plt>
    6e49:	48 8b 05 20 54 10 00 	mov    1070112(%rip),%rax        # 10c270 <_DYNAMIC+0x238>
    6e50:	48 83 c0 10          	add    $0x10,%rax
    6e54:	48 89 03             	mov    %rax,(%rbx)
    6e57:	5b                   	pop    %rbx
    6e58:	c3                   	retq   
    6e59:	90                   	nop    
    6e5a:	66 66 90             	xchg   %ax,%ax
    6e5d:	66 66 90             	xchg   %ax,%ax

0000000000006e60 <_ZN5boost23thread_permission_errorD2Ev>:
    6e60:	48 83 ec 08          	sub    $0x8,%rsp
    6e64:	48 8b 05 05 54 10 00 	mov    1070085(%rip),%rax        # 10c270 <_DYNAMIC+0x238>
    6e6b:	48 83 c0 10          	add    $0x10,%rax
    6e6f:	48 89 07             	mov    %rax,(%rdi)
    6e72:	e8 41 ef ff ff       	callq  5db8 <_ZN5boost16thread_exceptionD2Ev@plt>
    6e77:	48 83 c4 08          	add    $0x8,%rsp
    6e7b:	c3                   	retq   
    6e7c:	66 66 66 90          	xchg   %ax,%ax

0000000000006e80 <_ZN5boost23thread_permission_errorD1Ev>:
    6e80:	48 83 ec 08          	sub    $0x8,%rsp
    6e84:	48 8b 05 e5 53 10 00 	mov    1070053(%rip),%rax        # 10c270 <_DYNAMIC+0x238>
    6e8b:	48 83 c0 10          	add    $0x10,%rax
    6e8f:	48 89 07             	mov    %rax,(%rdi)
    6e92:	e8 21 ef ff ff       	callq  5db8 <_ZN5boost16thread_exceptionD2Ev@plt>
    6e97:	48 83 c4 08          	add    $0x8,%rsp
    6e9b:	c3                   	retq   
    6e9c:	66 66 66 90          	xchg   %ax,%ax

0000000000006ea0 <_ZN5boost23thread_permission_errorD0Ev>:
    6ea0:	48 8b 05 c9 53 10 00 	mov    1070025(%rip),%rax        # 10c270 <_DYNAMIC+0x238>
    6ea7:	53                   	push   %rbx
    6ea8:	48 89 fb             	mov    %rdi,%rbx
    6eab:	48 83 c0 10          	add    $0x10,%rax
    6eaf:	48 89 07             	mov    %rax,(%rdi)
    6eb2:	e8 01 ef ff ff       	callq  5db8 <_ZN5boost16thread_exceptionD2Ev@plt>
    6eb7:	48 89 df             	mov    %rbx,%rdi
    6eba:	e8 f9 f1 ff ff       	callq  60b8 <_ZdlPv@plt>
    6ebf:	5b                   	pop    %rbx
    6ec0:	c3                   	retq   
    6ec1:	90                   	nop    
    6ec2:	66 66 66 90          	xchg   %ax,%ax
    6ec6:	66 66 66 90          	xchg   %ax,%ax
    6eca:	66 66 90             	xchg   %ax,%ax
    6ecd:	66 66 90             	xchg   %ax,%ax

0000000000006ed0 <_ZNK5boost23thread_permission_error4whatEv>:
    6ed0:	48 8d 05 09 32 00 00 	lea    12809(%rip),%rax        # a0e0 <_ZTSN5boost23thread_permission_errorE+0xa0>
    6ed7:	c3                   	retq   
    6ed8:	90                   	nop    
    6ed9:	90                   	nop    
    6eda:	90                   	nop    
    6edb:	90                   	nop    
    6edc:	90                   	nop    
    6edd:	90                   	nop    
    6ede:	90                   	nop    
    6edf:	90                   	nop    

0000000000006ee0 <_ZN5boost5mutexC2Ev>:
    6ee0:	48 89 5c 24 f0       	mov    %rbx,0xfffffffffffffff0(%rsp)
    6ee5:	48 89 6c 24 f8       	mov    %rbp,0xfffffffffffffff8(%rsp)
    6eea:	31 f6                	xor    %esi,%esi
    6eec:	48 83 ec 18          	sub    $0x18,%rsp
    6ef0:	e8 63 f0 ff ff       	callq  5f58 <pthread_mutex_init@plt>
    6ef5:	85 c0                	test   %eax,%eax
    6ef7:	75 0f                	jne    6f08 <_ZN5boost5mutexC2Ev+0x28>
    6ef9:	48 8b 5c 24 08       	mov    0x8(%rsp),%rbx
    6efe:	48 8b 6c 24 10       	mov    0x10(%rsp),%rbp
    6f03:	48 83 c4 18          	add    $0x18,%rsp
    6f07:	c3                   	retq   
    6f08:	bf 10 00 00 00       	mov    $0x10,%edi
    6f0d:	e8 c6 ee ff ff       	callq  5dd8 <__cxa_allocate_exception@plt>
    6f12:	48 89 c3             	mov    %rax,%rbx
    6f15:	48 89 c7             	mov    %rax,%rdi
    6f18:	e8 bb f1 ff ff       	callq  60d8 <_ZN5boost21thread_resource_errorC1Ev@plt>
    6f1d:	48 8b 15 f4 52 10 00 	mov    1069812(%rip),%rdx        # 10c218 <_DYNAMIC+0x1e0>
    6f24:	48 8b 35 8d 53 10 00 	mov    1069965(%rip),%rsi        # 10c2b8 <_DYNAMIC+0x280>
    6f2b:	48 89 df             	mov    %rbx,%rdi
    6f2e:	e8 35 f1 ff ff       	callq  6068 <__cxa_throw@plt>
    6f33:	48 89 df             	mov    %rbx,%rdi
    6f36:	48 89 c5             	mov    %rax,%rbp
    6f39:	e8 0a ed ff ff       	callq  5c48 <__cxa_free_exception@plt>
    6f3e:	48 89 ef             	mov    %rbp,%rdi
    6f41:	e8 f2 f0 ff ff       	callq  6038 <_Unwind_Resume@plt>
    6f46:	48 89 c5             	mov    %rax,%rbp
    6f49:	eb f3                	jmp    6f3e <_ZN5boost5mutexC2Ev+0x5e>
    6f4b:	90                   	nop    
    6f4c:	66 66 66 90          	xchg   %ax,%ax

0000000000006f50 <_ZN5boost5mutexC1Ev>:
    6f50:	48 89 5c 24 f0       	mov    %rbx,0xfffffffffffffff0(%rsp)
    6f55:	48 89 6c 24 f8       	mov    %rbp,0xfffffffffffffff8(%rsp)
    6f5a:	31 f6                	xor    %esi,%esi
    6f5c:	48 83 ec 18          	sub    $0x18,%rsp
    6f60:	e8 f3 ef ff ff       	callq  5f58 <pthread_mutex_init@plt>
    6f65:	85 c0                	test   %eax,%eax
    6f67:	75 0f                	jne    6f78 <_ZN5boost5mutexC1Ev+0x28>
    6f69:	48 8b 5c 24 08       	mov    0x8(%rsp),%rbx
    6f6e:	48 8b 6c 24 10       	mov    0x10(%rsp),%rbp
    6f73:	48 83 c4 18          	add    $0x18,%rsp
    6f77:	c3                   	retq   
    6f78:	bf 10 00 00 00       	mov    $0x10,%edi
    6f7d:	e8 56 ee ff ff       	callq  5dd8 <__cxa_allocate_exception@plt>
    6f82:	48 89 c3             	mov    %rax,%rbx
    6f85:	48 89 c7             	mov    %rax,%rdi
    6f88:	e8 4b f1 ff ff       	callq  60d8 <_ZN5boost21thread_resource_errorC1Ev@plt>
    6f8d:	48 8b 15 84 52 10 00 	mov    1069700(%rip),%rdx        # 10c218 <_DYNAMIC+0x1e0>
    6f94:	48 8b 35 1d 53 10 00 	mov    1069853(%rip),%rsi        # 10c2b8 <_DYNAMIC+0x280>
    6f9b:	48 89 df             	mov    %rbx,%rdi
    6f9e:	e8 c5 f0 ff ff       	callq  6068 <__cxa_throw@plt>
    6fa3:	48 89 df             	mov    %rbx,%rdi
    6fa6:	48 89 c5             	mov    %rax,%rbp
    6fa9:	e8 9a ec ff ff       	callq  5c48 <__cxa_free_exception@plt>
    6fae:	48 89 ef             	mov    %rbp,%rdi
    6fb1:	e8 82 f0 ff ff       	callq  6038 <_Unwind_Resume@plt>
    6fb6:	48 89 c5             	mov    %rax,%rbp
    6fb9:	eb f3                	jmp    6fae <_ZN5boost5mutexC1Ev+0x5e>
    6fbb:	90                   	nop    
    6fbc:	66 66 66 90          	xchg   %ax,%ax

0000000000006fc0 <_ZN5boost5mutexD2Ev>:
    6fc0:	48 83 ec 08          	sub    $0x8,%rsp
    6fc4:	e8 1f ec ff ff       	callq  5be8 <pthread_mutex_destroy@plt>
    6fc9:	48 83 c4 08          	add    $0x8,%rsp
    6fcd:	c3                   	retq   
    6fce:	66 90                	xchg   %ax,%ax

0000000000006fd0 <_ZN5boost5mutexD1Ev>:
    6fd0:	48 83 ec 08          	sub    $0x8,%rsp
    6fd4:	e8 0f ec ff ff       	callq  5be8 <pthread_mutex_destroy@plt>
    6fd9:	48 83 c4 08          	add    $0x8,%rsp
    6fdd:	c3                   	retq   
    6fde:	66 90                	xchg   %ax,%ax

0000000000006fe0 <_ZN5boost5mutex7do_lockEv>:
    6fe0:	48 89 5c 24 f0       	mov    %rbx,0xfffffffffffffff0(%rsp)
    6fe5:	48 89 6c 24 f8       	mov    %rbp,0xfffffffffffffff8(%rsp)
    6fea:	48 83 ec 18          	sub    $0x18,%rsp
    6fee:	e8 65 ed ff ff       	callq  5d58 <pthread_mutex_lock@plt>
    6ff3:	83 f8 23             	cmp    $0x23,%eax
    6ff6:	74 0f                	je     7007 <_ZN5boost5mutex7do_lockEv+0x27>
    6ff8:	48 8b 5c 24 08       	mov    0x8(%rsp),%rbx
    6ffd:	48 8b 6c 24 10       	mov    0x10(%rsp),%rbp
    7002:	48 83 c4 18          	add    $0x18,%rsp
    7006:	c3                   	retq   
    7007:	bf 10 00 00 00       	mov    $0x10,%edi
    700c:	e8 c7 ed ff ff       	callq  5dd8 <__cxa_allocate_exception@plt>
    7011:	48 89 c5             	mov    %rax,%rbp
    7014:	48 89 c7             	mov    %rax,%rdi
    7017:	e8 5c ef ff ff       	callq  5f78 <_ZN5boost10lock_errorC1Ev@plt>
    701c:	48 8b 15 b5 52 10 00 	mov    1069749(%rip),%rdx        # 10c2d8 <_DYNAMIC+0x2a0>
    7023:	48 8b 35 06 52 10 00 	mov    1069574(%rip),%rsi        # 10c230 <_DYNAMIC+0x1f8>
    702a:	48 89 ef             	mov    %rbp,%rdi
    702d:	e8 36 f0 ff ff       	callq  6068 <__cxa_throw@plt>
    7032:	48 89 c3             	mov    %rax,%rbx
    7035:	48 89 ef             	mov    %rbp,%rdi
    7038:	e8 0b ec ff ff       	callq  5c48 <__cxa_free_exception@plt>
    703d:	48 89 df             	mov    %rbx,%rdi
    7040:	e8 f3 ef ff ff       	callq  6038 <_Unwind_Resume@plt>
    7045:	90                   	nop    
    7046:	66 66 66 90          	xchg   %ax,%ax
    704a:	66 66 90             	xchg   %ax,%ax
    704d:	66 66 90             	xchg   %ax,%ax

0000000000007050 <_ZN5boost5mutex9do_unlockEv>:
    7050:	48 89 5c 24 f0       	mov    %rbx,0xfffffffffffffff0(%rsp)
    7055:	48 89 6c 24 f8       	mov    %rbp,0xfffffffffffffff8(%rsp)
    705a:	48 83 ec 18          	sub    $0x18,%rsp
    705e:	e8 85 ef ff ff       	callq  5fe8 <pthread_mutex_unlock@plt>
    7063:	ff c8                	dec    %eax
    7065:	74 0f                	je     7076 <_ZN5boost5mutex9do_unlockEv+0x26>
    7067:	48 8b 5c 24 08       	mov    0x8(%rsp),%rbx
    706c:	48 8b 6c 24 10       	mov    0x10(%rsp),%rbp
    7071:	48 83 c4 18          	add    $0x18,%rsp
    7075:	c3                   	retq   
    7076:	bf 10 00 00 00       	mov    $0x10,%edi
    707b:	e8 58 ed ff ff       	callq  5dd8 <__cxa_allocate_exception@plt>
    7080:	48 89 c5             	mov    %rax,%rbp
    7083:	48 89 c7             	mov    %rax,%rdi
    7086:	e8 ed ee ff ff       	callq  5f78 <_ZN5boost10lock_errorC1Ev@plt>
    708b:	48 8b 15 46 52 10 00 	mov    1069638(%rip),%rdx        # 10c2d8 <_DYNAMIC+0x2a0>
    7092:	48 8b 35 97 51 10 00 	mov    1069463(%rip),%rsi        # 10c230 <_DYNAMIC+0x1f8>
    7099:	48 89 ef             	mov    %rbp,%rdi
    709c:	e8 c7 ef ff ff       	callq  6068 <__cxa_throw@plt>
    70a1:	48 89 c3             	mov    %rax,%rbx
    70a4:	48 89 ef             	mov    %rbp,%rdi
    70a7:	e8 9c eb ff ff       	callq  5c48 <__cxa_free_exception@plt>
    70ac:	48 89 df             	mov    %rbx,%rdi
    70af:	e8 84 ef ff ff       	callq  6038 <_Unwind_Resume@plt>
    70b4:	66 66 66 90          	xchg   %ax,%ax
    70b8:	66 66 66 90          	xchg   %ax,%ax
    70bc:	66 66 66 90          	xchg   %ax,%ax

00000000000070c0 <_ZN5boost5mutex7do_lockERNS0_8cv_stateE>:
    70c0:	f3 c3                	repz retq 
    70c2:	66 66 66 90          	xchg   %ax,%ax
    70c6:	66 66 66 90          	xchg   %ax,%ax
    70ca:	66 66 90             	xchg   %ax,%ax
    70cd:	66 66 90             	xchg   %ax,%ax

00000000000070d0 <_ZN5boost5mutex9do_unlockERNS0_8cv_stateE>:
    70d0:	48 89 3e             	mov    %rdi,(%rsi)
    70d3:	c3                   	retq   
    70d4:	66 66 66 90          	xchg   %ax,%ax
    70d8:	66 66 66 90          	xchg   %ax,%ax
    70dc:	66 66 66 90          	xchg   %ax,%ax

00000000000070e0 <_ZN5boost9try_mutexC2Ev>:
    70e0:	48 89 5c 24 f0       	mov    %rbx,0xfffffffffffffff0(%rsp)
    70e5:	48 89 6c 24 f8       	mov    %rbp,0xfffffffffffffff8(%rsp)
    70ea:	31 f6                	xor    %esi,%esi
    70ec:	48 83 ec 18          	sub    $0x18,%rsp
    70f0:	e8 63 ee ff ff       	callq  5f58 <pthread_mutex_init@plt>
    70f5:	85 c0                	test   %eax,%eax
    70f7:	75 0f                	jne    7108 <_ZN5boost9try_mutexC2Ev+0x28>
    70f9:	48 8b 5c 24 08       	mov    0x8(%rsp),%rbx
    70fe:	48 8b 6c 24 10       	mov    0x10(%rsp),%rbp
    7103:	48 83 c4 18          	add    $0x18,%rsp
    7107:	c3                   	retq   
    7108:	bf 10 00 00 00       	mov    $0x10,%edi
    710d:	e8 c6 ec ff ff       	callq  5dd8 <__cxa_allocate_exception@plt>
    7112:	48 89 c3             	mov    %rax,%rbx
    7115:	48 89 c7             	mov    %rax,%rdi
    7118:	e8 bb ef ff ff       	callq  60d8 <_ZN5boost21thread_resource_errorC1Ev@plt>
    711d:	48 8b 15 f4 50 10 00 	mov    1069300(%rip),%rdx        # 10c218 <_DYNAMIC+0x1e0>
    7124:	48 8b 35 8d 51 10 00 	mov    1069453(%rip),%rsi        # 10c2b8 <_DYNAMIC+0x280>
    712b:	48 89 df             	mov    %rbx,%rdi
    712e:	e8 35 ef ff ff       	callq  6068 <__cxa_throw@plt>
    7133:	48 89 df             	mov    %rbx,%rdi
    7136:	48 89 c5             	mov    %rax,%rbp
    7139:	e8 0a eb ff ff       	callq  5c48 <__cxa_free_exception@plt>
    713e:	48 89 ef             	mov    %rbp,%rdi
    7141:	e8 f2 ee ff ff       	callq  6038 <_Unwind_Resume@plt>
    7146:	48 89 c5             	mov    %rax,%rbp
    7149:	eb f3                	jmp    713e <_ZN5boost9try_mutexC2Ev+0x5e>
    714b:	90                   	nop    
    714c:	66 66 66 90          	xchg   %ax,%ax

0000000000007150 <_ZN5boost9try_mutexC1Ev>:
    7150:	48 89 5c 24 f0       	mov    %rbx,0xfffffffffffffff0(%rsp)
    7155:	48 89 6c 24 f8       	mov    %rbp,0xfffffffffffffff8(%rsp)
    715a:	31 f6                	xor    %esi,%esi
    715c:	48 83 ec 18          	sub    $0x18,%rsp
    7160:	e8 f3 ed ff ff       	callq  5f58 <pthread_mutex_init@plt>
    7165:	85 c0                	test   %eax,%eax
    7167:	75 0f                	jne    7178 <_ZN5boost9try_mutexC1Ev+0x28>
    7169:	48 8b 5c 24 08       	mov    0x8(%rsp),%rbx
    716e:	48 8b 6c 24 10       	mov    0x10(%rsp),%rbp
    7173:	48 83 c4 18          	add    $0x18,%rsp
    7177:	c3                   	retq   
    7178:	bf 10 00 00 00       	mov    $0x10,%edi
    717d:	e8 56 ec ff ff       	callq  5dd8 <__cxa_allocate_exception@plt>
    7182:	48 89 c3             	mov    %rax,%rbx
    7185:	48 89 c7             	mov    %rax,%rdi
    7188:	e8 4b ef ff ff       	callq  60d8 <_ZN5boost21thread_resource_errorC1Ev@plt>
    718d:	48 8b 15 84 50 10 00 	mov    1069188(%rip),%rdx        # 10c218 <_DYNAMIC+0x1e0>
    7194:	48 8b 35 1d 51 10 00 	mov    1069341(%rip),%rsi        # 10c2b8 <_DYNAMIC+0x280>
    719b:	48 89 df             	mov    %rbx,%rdi
    719e:	e8 c5 ee ff ff       	callq  6068 <__cxa_throw@plt>
    71a3:	48 89 df             	mov    %rbx,%rdi
    71a6:	48 89 c5             	mov    %rax,%rbp
    71a9:	e8 9a ea ff ff       	callq  5c48 <__cxa_free_exception@plt>
    71ae:	48 89 ef             	mov    %rbp,%rdi
    71b1:	e8 82 ee ff ff       	callq  6038 <_Unwind_Resume@plt>
    71b6:	48 89 c5             	mov    %rax,%rbp
    71b9:	eb f3                	jmp    71ae <_ZN5boost9try_mutexC1Ev+0x5e>
    71bb:	90                   	nop    
    71bc:	66 66 66 90          	xchg   %ax,%ax

00000000000071c0 <_ZN5boost9try_mutexD2Ev>:
    71c0:	48 83 ec 08          	sub    $0x8,%rsp
    71c4:	e8 1f ea ff ff       	callq  5be8 <pthread_mutex_destroy@plt>
    71c9:	48 83 c4 08          	add    $0x8,%rsp
    71cd:	c3                   	retq   
    71ce:	66 90                	xchg   %ax,%ax

00000000000071d0 <_ZN5boost9try_mutexD1Ev>:
    71d0:	48 83 ec 08          	sub    $0x8,%rsp
    71d4:	e8 0f ea ff ff       	callq  5be8 <pthread_mutex_destroy@plt>
    71d9:	48 83 c4 08          	add    $0x8,%rsp
    71dd:	c3                   	retq   
    71de:	66 90                	xchg   %ax,%ax

00000000000071e0 <_ZN5boost9try_mutex7do_lockEv>:
    71e0:	48 89 5c 24 f0       	mov    %rbx,0xfffffffffffffff0(%rsp)
    71e5:	48 89 6c 24 f8       	mov    %rbp,0xfffffffffffffff8(%rsp)
    71ea:	48 83 ec 18          	sub    $0x18,%rsp
    71ee:	e8 65 eb ff ff       	callq  5d58 <pthread_mutex_lock@plt>
    71f3:	83 f8 23             	cmp    $0x23,%eax
    71f6:	74 0f                	je     7207 <_ZN5boost9try_mutex7do_lockEv+0x27>
    71f8:	48 8b 5c 24 08       	mov    0x8(%rsp),%rbx
    71fd:	48 8b 6c 24 10       	mov    0x10(%rsp),%rbp
    7202:	48 83 c4 18          	add    $0x18,%rsp
    7206:	c3                   	retq   
    7207:	bf 10 00 00 00       	mov    $0x10,%edi
    720c:	e8 c7 eb ff ff       	callq  5dd8 <__cxa_allocate_exception@plt>
    7211:	48 89 c5             	mov    %rax,%rbp
    7214:	48 89 c7             	mov    %rax,%rdi
    7217:	e8 5c ed ff ff       	callq  5f78 <_ZN5boost10lock_errorC1Ev@plt>
    721c:	48 8b 15 b5 50 10 00 	mov    1069237(%rip),%rdx        # 10c2d8 <_DYNAMIC+0x2a0>
    7223:	48 8b 35 06 50 10 00 	mov    1069062(%rip),%rsi        # 10c230 <_DYNAMIC+0x1f8>
    722a:	48 89 ef             	mov    %rbp,%rdi
    722d:	e8 36 ee ff ff       	callq  6068 <__cxa_throw@plt>
    7232:	48 89 c3             	mov    %rax,%rbx
    7235:	48 89 ef             	mov    %rbp,%rdi
    7238:	e8 0b ea ff ff       	callq  5c48 <__cxa_free_exception@plt>
    723d:	48 89 df             	mov    %rbx,%rdi
    7240:	e8 f3 ed ff ff       	callq  6038 <_Unwind_Resume@plt>
    7245:	90                   	nop    
    7246:	66 66 66 90          	xchg   %ax,%ax
    724a:	66 66 90             	xchg   %ax,%ax
    724d:	66 66 90             	xchg   %ax,%ax

0000000000007250 <_ZN5boost9try_mutex10do_trylockEv>:
    7250:	48 89 5c 24 f0       	mov    %rbx,0xfffffffffffffff0(%rsp)
    7255:	48 89 6c 24 f8       	mov    %rbp,0xfffffffffffffff8(%rsp)
    725a:	48 83 ec 18          	sub    $0x18,%rsp
    725e:	e8 25 eb ff ff       	callq  5d88 <pthread_mutex_trylock@plt>
    7263:	83 f8 23             	cmp    $0x23,%eax
    7266:	74 18                	je     7280 <_ZN5boost9try_mutex10do_trylockEv+0x30>
    7268:	85 c0                	test   %eax,%eax
    726a:	48 8b 5c 24 08       	mov    0x8(%rsp),%rbx
    726f:	48 8b 6c 24 10       	mov    0x10(%rsp),%rbp
    7274:	0f 94 c0             	sete   %al
    7277:	48 83 c4 18          	add    $0x18,%rsp
    727b:	0f b6 c0             	movzbl %al,%eax
    727e:	c3                   	retq   
    727f:	90                   	nop    
    7280:	bf 10 00 00 00       	mov    $0x10,%edi
    7285:	e8 4e eb ff ff       	callq  5dd8 <__cxa_allocate_exception@plt>
    728a:	48 89 c5             	mov    %rax,%rbp
    728d:	48 89 c7             	mov    %rax,%rdi
    7290:	e8 e3 ec ff ff       	callq  5f78 <_ZN5boost10lock_errorC1Ev@plt>
    7295:	48 8b 15 3c 50 10 00 	mov    1069116(%rip),%rdx        # 10c2d8 <_DYNAMIC+0x2a0>
    729c:	48 8b 35 8d 4f 10 00 	mov    1068941(%rip),%rsi        # 10c230 <_DYNAMIC+0x1f8>
    72a3:	48 89 ef             	mov    %rbp,%rdi
    72a6:	e8 bd ed ff ff       	callq  6068 <__cxa_throw@plt>
    72ab:	48 89 c3             	mov    %rax,%rbx
    72ae:	48 89 ef             	mov    %rbp,%rdi
    72b1:	e8 92 e9 ff ff       	callq  5c48 <__cxa_free_exception@plt>
    72b6:	48 89 df             	mov    %rbx,%rdi
    72b9:	e8 7a ed ff ff       	callq  6038 <_Unwind_Resume@plt>
    72be:	66 90                	xchg   %ax,%ax

00000000000072c0 <_ZN5boost9try_mutex9do_unlockEv>:
    72c0:	48 89 5c 24 f0       	mov    %rbx,0xfffffffffffffff0(%rsp)
    72c5:	48 89 6c 24 f8       	mov    %rbp,0xfffffffffffffff8(%rsp)
    72ca:	48 83 ec 18          	sub    $0x18,%rsp
    72ce:	e8 15 ed ff ff       	callq  5fe8 <pthread_mutex_unlock@plt>
    72d3:	ff c8                	dec    %eax
    72d5:	74 0f                	je     72e6 <_ZN5boost9try_mutex9do_unlockEv+0x26>
    72d7:	48 8b 5c 24 08       	mov    0x8(%rsp),%rbx
    72dc:	48 8b 6c 24 10       	mov    0x10(%rsp),%rbp
    72e1:	48 83 c4 18          	add    $0x18,%rsp
    72e5:	c3                   	retq   
    72e6:	bf 10 00 00 00       	mov    $0x10,%edi
    72eb:	e8 e8 ea ff ff       	callq  5dd8 <__cxa_allocate_exception@plt>
    72f0:	48 89 c5             	mov    %rax,%rbp
    72f3:	48 89 c7             	mov    %rax,%rdi
    72f6:	e8 7d ec ff ff       	callq  5f78 <_ZN5boost10lock_errorC1Ev@plt>
    72fb:	48 8b 15 d6 4f 10 00 	mov    1069014(%rip),%rdx        # 10c2d8 <_DYNAMIC+0x2a0>
    7302:	48 8b 35 27 4f 10 00 	mov    1068839(%rip),%rsi        # 10c230 <_DYNAMIC+0x1f8>
    7309:	48 89 ef             	mov    %rbp,%rdi
    730c:	e8 57 ed ff ff       	callq  6068 <__cxa_throw@plt>
    7311:	48 89 c3             	mov    %rax,%rbx
    7314:	48 89 ef             	mov    %rbp,%rdi
    7317:	e8 2c e9 ff ff       	callq  5c48 <__cxa_free_exception@plt>
    731c:	48 89 df             	mov    %rbx,%rdi
    731f:	e8 14 ed ff ff       	callq  6038 <_Unwind_Resume@plt>
    7324:	66 66 66 90          	xchg   %ax,%ax
    7328:	66 66 66 90          	xchg   %ax,%ax
    732c:	66 66 66 90          	xchg   %ax,%ax

0000000000007330 <_ZN5boost9try_mutex7do_lockERNS0_8cv_stateE>:
    7330:	f3 c3                	repz retq 
    7332:	66 66 66 90          	xchg   %ax,%ax
    7336:	66 66 66 90          	xchg   %ax,%ax
    733a:	66 66 90             	xchg   %ax,%ax
    733d:	66 66 90             	xchg   %ax,%ax

0000000000007340 <_ZN5boost9try_mutex9do_unlockERNS0_8cv_stateE>:
    7340:	48 89 3e             	mov    %rdi,(%rsi)
    7343:	c3                   	retq   
    7344:	66 66 66 90          	xchg   %ax,%ax
    7348:	66 66 66 90          	xchg   %ax,%ax
    734c:	66 66 66 90          	xchg   %ax,%ax

0000000000007350 <_ZN5boost11timed_mutexC2Ev>:
    7350:	48 89 5c 24 f0       	mov    %rbx,0xfffffffffffffff0(%rsp)
    7355:	48 89 6c 24 f8       	mov    %rbp,0xfffffffffffffff8(%rsp)
    735a:	31 f6                	xor    %esi,%esi
    735c:	48 83 ec 18          	sub    $0x18,%rsp
    7360:	c6 47 58 00          	movb   $0x0,0x58(%rdi)
    7364:	48 89 fb             	mov    %rdi,%rbx
    7367:	e8 ec eb ff ff       	callq  5f58 <pthread_mutex_init@plt>
    736c:	85 c0                	test   %eax,%eax
    736e:	74 30                	je     73a0 <_ZN5boost11timed_mutexC2Ev+0x50>
    7370:	bf 10 00 00 00       	mov    $0x10,%edi
    7375:	e8 5e ea ff ff       	callq  5dd8 <__cxa_allocate_exception@plt>
    737a:	48 89 c3             	mov    %rax,%rbx
    737d:	48 89 c7             	mov    %rax,%rdi
    7380:	e8 53 ed ff ff       	callq  60d8 <_ZN5boost21thread_resource_errorC1Ev@plt>
    7385:	48 8b 15 8c 4e 10 00 	mov    1068684(%rip),%rdx        # 10c218 <_DYNAMIC+0x1e0>
    738c:	48 8b 35 25 4f 10 00 	mov    1068837(%rip),%rsi        # 10c2b8 <_DYNAMIC+0x280>
    7393:	48 89 df             	mov    %rbx,%rdi
    7396:	e8 cd ec ff ff       	callq  6068 <__cxa_throw@plt>
    739b:	66 66 90             	xchg   %ax,%ax
    739e:	66 90                	xchg   %ax,%ax
    73a0:	48 8d 7b 28          	lea    0x28(%rbx),%rdi
    73a4:	31 f6                	xor    %esi,%esi
    73a6:	e8 2d eb ff ff       	callq  5ed8 <pthread_cond_init@plt>
    73ab:	85 c0                	test   %eax,%eax
    73ad:	75 29                	jne    73d8 <_ZN5boost11timed_mutexC2Ev+0x88>
    73af:	48 8b 5c 24 08       	mov    0x8(%rsp),%rbx
    73b4:	48 8b 6c 24 10       	mov    0x10(%rsp),%rbp
    73b9:	48 83 c4 18          	add    $0x18,%rsp
    73bd:	c3                   	retq   
    73be:	66 90                	xchg   %ax,%ax
    73c0:	48 89 df             	mov    %rbx,%rdi
    73c3:	48 89 c5             	mov    %rax,%rbp
    73c6:	e8 7d e8 ff ff       	callq  5c48 <__cxa_free_exception@plt>
    73cb:	48 89 ef             	mov    %rbp,%rdi
    73ce:	e8 65 ec ff ff       	callq  6038 <_Unwind_Resume@plt>
    73d3:	48 89 c5             	mov    %rax,%rbp
    73d6:	eb f3                	jmp    73cb <_ZN5boost11timed_mutexC2Ev+0x7b>
    73d8:	48 89 df             	mov    %rbx,%rdi
    73db:	e8 08 e8 ff ff       	callq  5be8 <pthread_mutex_destroy@plt>
    73e0:	bf 10 00 00 00       	mov    $0x10,%edi
    73e5:	e8 ee e9 ff ff       	callq  5dd8 <__cxa_allocate_exception@plt>
    73ea:	48 89 c3             	mov    %rax,%rbx
    73ed:	48 89 c7             	mov    %rax,%rdi
    73f0:	e8 e3 ec ff ff       	callq  60d8 <_ZN5boost21thread_resource_errorC1Ev@plt>
    73f5:	eb 8e                	jmp    7385 <_ZN5boost11timed_mutexC2Ev+0x35>
    73f7:	90                   	nop    
    73f8:	66 66 66 90          	xchg   %ax,%ax
    73fc:	66 66 66 90          	xchg   %ax,%ax

0000000000007400 <_ZN5boost11timed_mutexC1Ev>:
    7400:	48 89 5c 24 f0       	mov    %rbx,0xfffffffffffffff0(%rsp)
    7405:	48 89 6c 24 f8       	mov    %rbp,0xfffffffffffffff8(%rsp)
    740a:	31 f6                	xor    %esi,%esi
    740c:	48 83 ec 18          	sub    $0x18,%rsp
    7410:	c6 47 58 00          	movb   $0x0,0x58(%rdi)
    7414:	48 89 fb             	mov    %rdi,%rbx
    7417:	e8 3c eb ff ff       	callq  5f58 <pthread_mutex_init@plt>
    741c:	85 c0                	test   %eax,%eax
    741e:	74 30                	je     7450 <_ZN5boost11timed_mutexC1Ev+0x50>
    7420:	bf 10 00 00 00       	mov    $0x10,%edi
    7425:	e8 ae e9 ff ff       	callq  5dd8 <__cxa_allocate_exception@plt>
    742a:	48 89 c3             	mov    %rax,%rbx
    742d:	48 89 c7             	mov    %rax,%rdi
    7430:	e8 a3 ec ff ff       	callq  60d8 <_ZN5boost21thread_resource_errorC1Ev@plt>
    7435:	48 8b 15 dc 4d 10 00 	mov    1068508(%rip),%rdx        # 10c218 <_DYNAMIC+0x1e0>
    743c:	48 8b 35 75 4e 10 00 	mov    1068661(%rip),%rsi        # 10c2b8 <_DYNAMIC+0x280>
    7443:	48 89 df             	mov    %rbx,%rdi
    7446:	e8 1d ec ff ff       	callq  6068 <__cxa_throw@plt>
    744b:	66 66 90             	xchg   %ax,%ax
    744e:	66 90                	xchg   %ax,%ax
    7450:	48 8d 7b 28          	lea    0x28(%rbx),%rdi
    7454:	31 f6                	xor    %esi,%esi
    7456:	e8 7d ea ff ff       	callq  5ed8 <pthread_cond_init@plt>
    745b:	85 c0                	test   %eax,%eax
    745d:	75 29                	jne    7488 <_ZN5boost11timed_mutexC1Ev+0x88>
    745f:	48 8b 5c 24 08       	mov    0x8(%rsp),%rbx
    7464:	48 8b 6c 24 10       	mov    0x10(%rsp),%rbp
    7469:	48 83 c4 18          	add    $0x18,%rsp
    746d:	c3                   	retq   
    746e:	66 90                	xchg   %ax,%ax
    7470:	48 89 df             	mov    %rbx,%rdi
    7473:	48 89 c5             	mov    %rax,%rbp
    7476:	e8 cd e7 ff ff       	callq  5c48 <__cxa_free_exception@plt>
    747b:	48 89 ef             	mov    %rbp,%rdi
    747e:	e8 b5 eb ff ff       	callq  6038 <_Unwind_Resume@plt>
    7483:	48 89 c5             	mov    %rax,%rbp
    7486:	eb f3                	jmp    747b <_ZN5boost11timed_mutexC1Ev+0x7b>
    7488:	48 89 df             	mov    %rbx,%rdi
    748b:	e8 58 e7 ff ff       	callq  5be8 <pthread_mutex_destroy@plt>
    7490:	bf 10 00 00 00       	mov    $0x10,%edi
    7495:	e8 3e e9 ff ff       	callq  5dd8 <__cxa_allocate_exception@plt>
    749a:	48 89 c3             	mov    %rax,%rbx
    749d:	48 89 c7             	mov    %rax,%rdi
    74a0:	e8 33 ec ff ff       	callq  60d8 <_ZN5boost21thread_resource_errorC1Ev@plt>
    74a5:	eb 8e                	jmp    7435 <_ZN5boost11timed_mutexC1Ev+0x35>
    74a7:	90                   	nop    
    74a8:	66 66 66 90          	xchg   %ax,%ax
    74ac:	66 66 66 90          	xchg   %ax,%ax

00000000000074b0 <_ZN5boost11timed_mutexD2Ev>:
    74b0:	53                   	push   %rbx
    74b1:	48 89 fb             	mov    %rdi,%rbx
    74b4:	48 83 c3 28          	add    $0x28,%rbx
    74b8:	e8 2b e7 ff ff       	callq  5be8 <pthread_mutex_destroy@plt>
    74bd:	48 89 df             	mov    %rbx,%rdi
    74c0:	e8 33 eb ff ff       	callq  5ff8 <pthread_cond_destroy@plt>
    74c5:	5b                   	pop    %rbx
    74c6:	c3                   	retq   
    74c7:	90                   	nop    
    74c8:	66 66 66 90          	xchg   %ax,%ax
    74cc:	66 66 66 90          	xchg   %ax,%ax

00000000000074d0 <_ZN5boost11timed_mutexD1Ev>:
    74d0:	53                   	push   %rbx
    74d1:	48 89 fb             	mov    %rdi,%rbx
    74d4:	48 83 c3 28          	add    $0x28,%rbx
    74d8:	e8 0b e7 ff ff       	callq  5be8 <pthread_mutex_destroy@plt>
    74dd:	48 89 df             	mov    %rbx,%rdi
    74e0:	e8 13 eb ff ff       	callq  5ff8 <pthread_cond_destroy@plt>
    74e5:	5b                   	pop    %rbx
    74e6:	c3                   	retq   
    74e7:	90                   	nop    
    74e8:	66 66 66 90          	xchg   %ax,%ax
    74ec:	66 66 66 90          	xchg   %ax,%ax

00000000000074f0 <_ZN5boost11timed_mutex7do_lockEv>:
    74f0:	55                   	push   %rbp
    74f1:	53                   	push   %rbx
    74f2:	48 89 fb             	mov    %rdi,%rbx
    74f5:	48 83 ec 08          	sub    $0x8,%rsp
    74f9:	e8 5a e8 ff ff       	callq  5d58 <pthread_mutex_lock@plt>
    74fe:	80 7b 58 00          	cmpb   $0x0,0x58(%rbx)
    7502:	74 15                	je     7519 <_ZN5boost11timed_mutex7do_lockEv+0x29>
    7504:	48 8d 6b 28          	lea    0x28(%rbx),%rbp
    7508:	48 89 de             	mov    %rbx,%rsi
    750b:	48 89 ef             	mov    %rbp,%rdi
    750e:	e8 95 e6 ff ff       	callq  5ba8 <pthread_cond_wait@plt>
    7513:	80 7b 58 00          	cmpb   $0x0,0x58(%rbx)
    7517:	75 ef                	jne    7508 <_ZN5boost11timed_mutex7do_lockEv+0x18>
    7519:	c6 43 58 01          	movb   $0x1,0x58(%rbx)
    751d:	48 89 df             	mov    %rbx,%rdi
    7520:	48 83 c4 08          	add    $0x8,%rsp
    7524:	5b                   	pop    %rbx
    7525:	5d                   	pop    %rbp
    7526:	e9 bd ea ff ff       	jmpq   5fe8 <pthread_mutex_unlock@plt>
    752b:	90                   	nop    
    752c:	66 66 66 90          	xchg   %ax,%ax

0000000000007530 <_ZN5boost11timed_mutex10do_trylockEv>:
    7530:	48 89 5c 24 f0       	mov    %rbx,0xfffffffffffffff0(%rsp)
    7535:	48 89 6c 24 f8       	mov    %rbp,0xfffffffffffffff8(%rsp)
    753a:	48 89 fb             	mov    %rdi,%rbx
    753d:	48 83 ec 18          	sub    $0x18,%rsp
    7541:	31 ed                	xor    %ebp,%ebp
    7543:	e8 10 e8 ff ff       	callq  5d58 <pthread_mutex_lock@plt>
    7548:	80 7b 58 00          	cmpb   $0x0,0x58(%rbx)
    754c:	75 09                	jne    7557 <_ZN5boost11timed_mutex10do_trylockEv+0x27>
    754e:	c6 43 58 01          	movb   $0x1,0x58(%rbx)
    7552:	bd 01 00 00 00       	mov    $0x1,%ebp
    7557:	48 89 df             	mov    %rbx,%rdi
    755a:	e8 89 ea ff ff       	callq  5fe8 <pthread_mutex_unlock@plt>
    755f:	40 0f b6 c5          	movzbl %bpl,%eax
    7563:	48 8b 5c 24 08       	mov    0x8(%rsp),%rbx
    7568:	48 8b 6c 24 10       	mov    0x10(%rsp),%rbp
    756d:	48 83 c4 18          	add    $0x18,%rsp
    7571:	c3                   	retq   
    7572:	66 66 66 90          	xchg   %ax,%ax
    7576:	66 66 66 90          	xchg   %ax,%ax
    757a:	66 66 90             	xchg   %ax,%ax
    757d:	66 66 90             	xchg   %ax,%ax

0000000000007580 <_ZN5boost11timed_mutex12do_timedlockERKNS_5xtimeE>:
    7580:	41 54                	push   %r12
    7582:	55                   	push   %rbp
    7583:	48 89 fd             	mov    %rdi,%rbp
    7586:	53                   	push   %rbx
    7587:	48 89 f3             	mov    %rsi,%rbx
    758a:	48 83 ec 10          	sub    $0x10,%rsp
    758e:	e8 c5 e7 ff ff       	callq  5d58 <pthread_mutex_lock@plt>
    7593:	48 63 4b 08          	movslq 0x8(%rbx),%rcx
    7597:	48 63 33             	movslq (%rbx),%rsi
    759a:	48 81 f9 ff c9 9a 3b 	cmp    $0x3b9ac9ff,%rcx
    75a1:	0f 8e 89 00 00 00    	jle    7630 <_ZN5boost11timed_mutex12do_timedlockERKNS_5xtimeE+0xb0>
    75a7:	48 89 c8             	mov    %rcx,%rax
    75aa:	49 b8 b3 94 d6 26 e8 	mov    $0x112e0be826d694b3,%r8
    75b1:	0b 2e 11 
    75b4:	48 89 cf             	mov    %rcx,%rdi
    75b7:	49 f7 e8             	imul   %r8
    75ba:	48 c1 ff 3f          	sar    $0x3f,%rdi
    75be:	48 c1 fa 1a          	sar    $0x1a,%rdx
    75c2:	48 29 fa             	sub    %rdi,%rdx
    75c5:	48 8d 04 16          	lea    (%rsi,%rdx,1),%rax
    75c9:	48 69 d2 00 ca 9a 3b 	imul   $0x3b9aca00,%rdx,%rdx
    75d0:	48 89 04 24          	mov    %rax,(%rsp)
    75d4:	48 29 d1             	sub    %rdx,%rcx
    75d7:	48 89 4c 24 08       	mov    %rcx,0x8(%rsp)
    75dc:	0f b6 45 58          	movzbl 0x58(%rbp),%eax
    75e0:	84 c0                	test   %al,%al
    75e2:	74 27                	je     760b <_ZN5boost11timed_mutex12do_timedlockERKNS_5xtimeE+0x8b>
    75e4:	48 8d 5d 28          	lea    0x28(%rbp),%rbx
    75e8:	49 89 e4             	mov    %rsp,%r12
    75eb:	66 66 90             	xchg   %ax,%ax
    75ee:	66 90                	xchg   %ax,%ax
    75f0:	4c 89 e2             	mov    %r12,%rdx
    75f3:	48 89 ee             	mov    %rbp,%rsi
    75f6:	48 89 df             	mov    %rbx,%rdi
    75f9:	e8 ba e5 ff ff       	callq  5bb8 <pthread_cond_timedwait@plt>
    75fe:	83 f8 6e             	cmp    $0x6e,%eax
    7601:	74 38                	je     763b <_ZN5boost11timed_mutex12do_timedlockERKNS_5xtimeE+0xbb>
    7603:	0f b6 45 58          	movzbl 0x58(%rbp),%eax
    7607:	84 c0                	test   %al,%al
    7609:	75 e5                	jne    75f0 <_ZN5boost11timed_mutex12do_timedlockERKNS_5xtimeE+0x70>
    760b:	31 db                	xor    %ebx,%ebx
    760d:	84 c0                	test   %al,%al
    760f:	75 09                	jne    761a <_ZN5boost11timed_mutex12do_timedlockERKNS_5xtimeE+0x9a>
    7611:	c6 45 58 01          	movb   $0x1,0x58(%rbp)
    7615:	bb 01 00 00 00       	mov    $0x1,%ebx
    761a:	48 89 ef             	mov    %rbp,%rdi
    761d:	e8 c6 e9 ff ff       	callq  5fe8 <pthread_mutex_unlock@plt>
    7622:	48 83 c4 10          	add    $0x10,%rsp
    7626:	0f b6 c3             	movzbl %bl,%eax
    7629:	5b                   	pop    %rbx
    762a:	5d                   	pop    %rbp
    762b:	41 5c                	pop    %r12
    762d:	c3                   	retq   
    762e:	66 90                	xchg   %ax,%ax
    7630:	48 89 4c 24 08       	mov    %rcx,0x8(%rsp)
    7635:	48 89 34 24          	mov    %rsi,(%rsp)
    7639:	eb a1                	jmp    75dc <_ZN5boost11timed_mutex12do_timedlockERKNS_5xtimeE+0x5c>
    763b:	0f b6 45 58          	movzbl 0x58(%rbp),%eax
    763f:	eb ca                	jmp    760b <_ZN5boost11timed_mutex12do_timedlockERKNS_5xtimeE+0x8b>
    7641:	90                   	nop    
    7642:	66 66 66 90          	xchg   %ax,%ax
    7646:	66 66 66 90          	xchg   %ax,%ax
    764a:	66 66 90             	xchg   %ax,%ax
    764d:	66 66 90             	xchg   %ax,%ax

0000000000007650 <_ZN5boost11timed_mutex9do_unlockEv>:
    7650:	53                   	push   %rbx
    7651:	48 89 fb             	mov    %rdi,%rbx
    7654:	e8 ff e6 ff ff       	callq  5d58 <pthread_mutex_lock@plt>
    7659:	48 8d 7b 28          	lea    0x28(%rbx),%rdi
    765d:	c6 43 58 00          	movb   $0x0,0x58(%rbx)
    7661:	e8 32 e8 ff ff       	callq  5e98 <pthread_cond_signal@plt>
    7666:	48 89 df             	mov    %rbx,%rdi
    7669:	5b                   	pop    %rbx
    766a:	e9 79 e9 ff ff       	jmpq   5fe8 <pthread_mutex_unlock@plt>
    766f:	90                   	nop    

0000000000007670 <_ZN5boost11timed_mutex7do_lockERNS0_8cv_stateE>:
    7670:	55                   	push   %rbp
    7671:	53                   	push   %rbx
    7672:	48 89 fb             	mov    %rdi,%rbx
    7675:	48 83 ec 08          	sub    $0x8,%rsp
    7679:	80 7f 58 00          	cmpb   $0x0,0x58(%rdi)
    767d:	74 15                	je     7694 <_ZN5boost11timed_mutex7do_lockERNS0_8cv_stateE+0x24>
    767f:	48 8d 6f 28          	lea    0x28(%rdi),%rbp
    7683:	48 89 de             	mov    %rbx,%rsi
    7686:	48 89 ef             	mov    %rbp,%rdi
    7689:	e8 1a e5 ff ff       	callq  5ba8 <pthread_cond_wait@plt>
    768e:	80 7b 58 00          	cmpb   $0x0,0x58(%rbx)
    7692:	75 ef                	jne    7683 <_ZN5boost11timed_mutex7do_lockERNS0_8cv_stateE+0x13>
    7694:	c6 43 58 01          	movb   $0x1,0x58(%rbx)
    7698:	48 89 df             	mov    %rbx,%rdi
    769b:	48 83 c4 08          	add    $0x8,%rsp
    769f:	5b                   	pop    %rbx
    76a0:	5d                   	pop    %rbp
    76a1:	e9 42 e9 ff ff       	jmpq   5fe8 <pthread_mutex_unlock@plt>
    76a6:	66 66 66 90          	xchg   %ax,%ax
    76aa:	66 66 90             	xchg   %ax,%ax
    76ad:	66 66 90             	xchg   %ax,%ax

00000000000076b0 <_ZN5boost11timed_mutex9do_unlockERNS0_8cv_stateE>:
    76b0:	48 89 5c 24 f0       	mov    %rbx,0xfffffffffffffff0(%rsp)
    76b5:	4c 89 64 24 f8       	mov    %r12,0xfffffffffffffff8(%rsp)
    76ba:	48 89 fb             	mov    %rdi,%rbx
    76bd:	48 83 ec 18          	sub    $0x18,%rsp
    76c1:	49 89 f4             	mov    %rsi,%r12
    76c4:	e8 8f e6 ff ff       	callq  5d58 <pthread_mutex_lock@plt>
    76c9:	48 8d 7b 28          	lea    0x28(%rbx),%rdi
    76cd:	c6 43 58 00          	movb   $0x0,0x58(%rbx)
    76d1:	e8 c2 e7 ff ff       	callq  5e98 <pthread_cond_signal@plt>
    76d6:	49 89 1c 24          	mov    %rbx,(%r12)
    76da:	48 8b 5c 24 08       	mov    0x8(%rsp),%rbx
    76df:	4c 8b 64 24 10       	mov    0x10(%rsp),%r12
    76e4:	48 83 c4 18          	add    $0x18,%rsp
    76e8:	c3                   	retq   
    76e9:	90                   	nop    
    76ea:	90                   	nop    
    76eb:	90                   	nop    
    76ec:	90                   	nop    
    76ed:	90                   	nop    
    76ee:	90                   	nop    
    76ef:	90                   	nop    
    76f0:	48 8b 3d f1 4b 10 00 	mov    1068017(%rip),%rdi        # 10c2e8 <_DYNAMIC+0x2b0>
    76f7:	31 f6                	xor    %esi,%esi
    76f9:	e9 8a e4 ff ff       	jmpq   5b88 <pthread_key_create@plt>
    76fe:	66 90                	xchg   %ax,%ax
    7700:	48 83 ec 08          	sub    $0x8,%rsp
    7704:	48 8b 05 dd 4b 10 00 	mov    1067997(%rip),%rax        # 10c2e8 <_DYNAMIC+0x2b0>
    770b:	8b 38                	mov    (%rax),%edi
    770d:	e8 f6 e8 ff ff       	callq  6008 <pthread_getspecific@plt>
    7712:	4c 8b 18             	mov    (%rax),%r11
    7715:	48 83 c4 08          	add    $0x8,%rsp
    7719:	41 ff e3             	jmpq   *%r11
    771c:	66 66 66 90          	xchg   %ax,%ax

0000000000007720 <_ZN5boost9call_onceEPFvvERi>:
    7720:	53                   	push   %rbx
    7721:	48 89 f3             	mov    %rsi,%rbx
    7724:	48 8d 35 c5 ff ff ff 	lea    -59(%rip),%rsi        # 76f0 <_ZN5boost11timed_mutex9do_unlockERNS0_8cv_stateE+0x40>
    772b:	48 83 ec 10          	sub    $0x10,%rsp
    772f:	48 89 7c 24 08       	mov    %rdi,0x8(%rsp)
    7734:	48 8b 3d 8d 4b 10 00 	mov    1067917(%rip),%rdi        # 10c2c8 <_DYNAMIC+0x290>
    773b:	e8 68 e6 ff ff       	callq  5da8 <pthread_once@plt>
    7740:	48 8b 05 a1 4b 10 00 	mov    1067937(%rip),%rax        # 10c2e8 <_DYNAMIC+0x2b0>
    7747:	48 8d 74 24 08       	lea    0x8(%rsp),%rsi
    774c:	8b 38                	mov    (%rax),%edi
    774e:	e8 85 e5 ff ff       	callq  5cd8 <pthread_setspecific@plt>
    7753:	48 8d 35 a6 ff ff ff 	lea    -90(%rip),%rsi        # 7700 <_ZN5boost11timed_mutex9do_unlockERNS0_8cv_stateE+0x50>
    775a:	48 89 df             	mov    %rbx,%rdi
    775d:	e8 46 e6 ff ff       	callq  5da8 <pthread_once@plt>
    7762:	48 83 c4 10          	add    $0x10,%rsp
    7766:	5b                   	pop    %rbx
    7767:	c3                   	retq   
    7768:	90                   	nop    
    7769:	90                   	nop    
    776a:	90                   	nop    
    776b:	90                   	nop    
    776c:	90                   	nop    
    776d:	90                   	nop    
    776e:	90                   	nop    
    776f:	90                   	nop    

0000000000007770 <_ZN5boost15recursive_mutexC2Ev>:
    7770:	48 89 5c 24 f0       	mov    %rbx,0xfffffffffffffff0(%rsp)
    7775:	48 89 6c 24 f8       	mov    %rbp,0xfffffffffffffff8(%rsp)
    777a:	48 83 ec 18          	sub    $0x18,%rsp
    777e:	48 89 fd             	mov    %rdi,%rbp
    7781:	c7 47 28 00 00 00 00 	movl   $0x0,0x28(%rdi)
    7788:	48 8d 7c 24 04       	lea    0x4(%rsp),%rdi
    778d:	e8 26 e5 ff ff       	callq  5cb8 <pthread_mutexattr_init@plt>
    7792:	48 8d 7c 24 04       	lea    0x4(%rsp),%rdi
    7797:	be 01 00 00 00       	mov    $0x1,%esi
    779c:	e8 e7 e6 ff ff       	callq  5e88 <pthread_mutexattr_settype@plt>
    77a1:	48 8d 74 24 04       	lea    0x4(%rsp),%rsi
    77a6:	48 89 ef             	mov    %rbp,%rdi
    77a9:	e8 aa e7 ff ff       	callq  5f58 <pthread_mutex_init@plt>
    77ae:	48 8d 7c 24 04       	lea    0x4(%rsp),%rdi
    77b3:	89 c3                	mov    %eax,%ebx
    77b5:	e8 be e5 ff ff       	callq  5d78 <pthread_mutexattr_destroy@plt>
    77ba:	85 db                	test   %ebx,%ebx
    77bc:	75 12                	jne    77d0 <_ZN5boost15recursive_mutexC2Ev+0x60>
    77be:	48 8b 5c 24 08       	mov    0x8(%rsp),%rbx
    77c3:	48 8b 6c 24 10       	mov    0x10(%rsp),%rbp
    77c8:	48 83 c4 18          	add    $0x18,%rsp
    77cc:	c3                   	retq   
    77cd:	66 66 90             	xchg   %ax,%ax
    77d0:	bf 10 00 00 00       	mov    $0x10,%edi
    77d5:	e8 fe e5 ff ff       	callq  5dd8 <__cxa_allocate_exception@plt>
    77da:	48 89 c3             	mov    %rax,%rbx
    77dd:	48 89 c7             	mov    %rax,%rdi
    77e0:	e8 f3 e8 ff ff       	callq  60d8 <_ZN5boost21thread_resource_errorC1Ev@plt>
    77e5:	48 8b 15 2c 4a 10 00 	mov    1067564(%rip),%rdx        # 10c218 <_DYNAMIC+0x1e0>
    77ec:	48 8b 35 c5 4a 10 00 	mov    1067717(%rip),%rsi        # 10c2b8 <_DYNAMIC+0x280>
    77f3:	48 89 df             	mov    %rbx,%rdi
    77f6:	e8 6d e8 ff ff       	callq  6068 <__cxa_throw@plt>
    77fb:	66 66 90             	xchg   %ax,%ax
    77fe:	66 90                	xchg   %ax,%ax
    7800:	48 89 df             	mov    %rbx,%rdi
    7803:	48 89 c5             	mov    %rax,%rbp
    7806:	e8 3d e4 ff ff       	callq  5c48 <__cxa_free_exception@plt>
    780b:	48 89 ef             	mov    %rbp,%rdi
    780e:	e8 25 e8 ff ff       	callq  6038 <_Unwind_Resume@plt>
    7813:	48 89 c5             	mov    %rax,%rbp
    7816:	eb f3                	jmp    780b <_ZN5boost15recursive_mutexC2Ev+0x9b>
    7818:	66 66 66 90          	xchg   %ax,%ax
    781c:	66 66 66 90          	xchg   %ax,%ax

0000000000007820 <_ZN5boost15recursive_mutexC1Ev>:
    7820:	48 89 5c 24 f0       	mov    %rbx,0xfffffffffffffff0(%rsp)
    7825:	48 89 6c 24 f8       	mov    %rbp,0xfffffffffffffff8(%rsp)
    782a:	48 83 ec 18          	sub    $0x18,%rsp
    782e:	48 89 fd             	mov    %rdi,%rbp
    7831:	c7 47 28 00 00 00 00 	movl   $0x0,0x28(%rdi)
    7838:	48 8d 7c 24 04       	lea    0x4(%rsp),%rdi
    783d:	e8 76 e4 ff ff       	callq  5cb8 <pthread_mutexattr_init@plt>
    7842:	48 8d 7c 24 04       	lea    0x4(%rsp),%rdi
    7847:	be 01 00 00 00       	mov    $0x1,%esi
    784c:	e8 37 e6 ff ff       	callq  5e88 <pthread_mutexattr_settype@plt>
    7851:	48 8d 74 24 04       	lea    0x4(%rsp),%rsi
    7856:	48 89 ef             	mov    %rbp,%rdi
    7859:	e8 fa e6 ff ff       	callq  5f58 <pthread_mutex_init@plt>
    785e:	48 8d 7c 24 04       	lea    0x4(%rsp),%rdi
    7863:	89 c3                	mov    %eax,%ebx
    7865:	e8 0e e5 ff ff       	callq  5d78 <pthread_mutexattr_destroy@plt>
    786a:	85 db                	test   %ebx,%ebx
    786c:	75 12                	jne    7880 <_ZN5boost15recursive_mutexC1Ev+0x60>
    786e:	48 8b 5c 24 08       	mov    0x8(%rsp),%rbx
    7873:	48 8b 6c 24 10       	mov    0x10(%rsp),%rbp
    7878:	48 83 c4 18          	add    $0x18,%rsp
    787c:	c3                   	retq   
    787d:	66 66 90             	xchg   %ax,%ax
    7880:	bf 10 00 00 00       	mov    $0x10,%edi
    7885:	e8 4e e5 ff ff       	callq  5dd8 <__cxa_allocate_exception@plt>
    788a:	48 89 c3             	mov    %rax,%rbx
    788d:	48 89 c7             	mov    %rax,%rdi
    7890:	e8 43 e8 ff ff       	callq  60d8 <_ZN5boost21thread_resource_errorC1Ev@plt>
    7895:	48 8b 15 7c 49 10 00 	mov    1067388(%rip),%rdx        # 10c218 <_DYNAMIC+0x1e0>
    789c:	48 8b 35 15 4a 10 00 	mov    1067541(%rip),%rsi        # 10c2b8 <_DYNAMIC+0x280>
    78a3:	48 89 df             	mov    %rbx,%rdi
    78a6:	e8 bd e7 ff ff       	callq  6068 <__cxa_throw@plt>
    78ab:	66 66 90             	xchg   %ax,%ax
    78ae:	66 90                	xchg   %ax,%ax
    78b0:	48 89 df             	mov    %rbx,%rdi
    78b3:	48 89 c5             	mov    %rax,%rbp
    78b6:	e8 8d e3 ff ff       	callq  5c48 <__cxa_free_exception@plt>
    78bb:	48 89 ef             	mov    %rbp,%rdi
    78be:	e8 75 e7 ff ff       	callq  6038 <_Unwind_Resume@plt>
    78c3:	48 89 c5             	mov    %rax,%rbp
    78c6:	eb f3                	jmp    78bb <_ZN5boost15recursive_mutexC1Ev+0x9b>
    78c8:	66 66 66 90          	xchg   %ax,%ax
    78cc:	66 66 66 90          	xchg   %ax,%ax

00000000000078d0 <_ZN5boost15recursive_mutexD2Ev>:
    78d0:	48 83 ec 08          	sub    $0x8,%rsp
    78d4:	e8 0f e3 ff ff       	callq  5be8 <pthread_mutex_destroy@plt>
    78d9:	48 83 c4 08          	add    $0x8,%rsp
    78dd:	c3                   	retq   
    78de:	66 90                	xchg   %ax,%ax

00000000000078e0 <_ZN5boost15recursive_mutexD1Ev>:
    78e0:	48 83 ec 08          	sub    $0x8,%rsp
    78e4:	e8 ff e2 ff ff       	callq  5be8 <pthread_mutex_destroy@plt>
    78e9:	48 83 c4 08          	add    $0x8,%rsp
    78ed:	c3                   	retq   
    78ee:	66 90                	xchg   %ax,%ax

00000000000078f0 <_ZN5boost15recursive_mutex7do_lockEv>:
    78f0:	53                   	push   %rbx
    78f1:	48 89 fb             	mov    %rdi,%rbx
    78f4:	e8 5f e4 ff ff       	callq  5d58 <pthread_mutex_lock@plt>
    78f9:	8b 43 28             	mov    0x28(%rbx),%eax
    78fc:	ff c0                	inc    %eax
    78fe:	83 f8 01             	cmp    $0x1,%eax
    7901:	89 43 28             	mov    %eax,0x28(%rbx)
    7904:	77 02                	ja     7908 <_ZN5boost15recursive_mutex7do_lockEv+0x18>
    7906:	5b                   	pop    %rbx
    7907:	c3                   	retq   
    7908:	48 89 df             	mov    %rbx,%rdi
    790b:	5b                   	pop    %rbx
    790c:	e9 d7 e6 ff ff       	jmpq   5fe8 <pthread_mutex_unlock@plt>
    7911:	90                   	nop    
    7912:	66 66 66 90          	xchg   %ax,%ax
    7916:	66 66 66 90          	xchg   %ax,%ax
    791a:	66 66 90             	xchg   %ax,%ax
    791d:	66 66 90             	xchg   %ax,%ax

0000000000007920 <_ZN5boost15recursive_mutex9do_unlockEv>:
    7920:	8b 47 28             	mov    0x28(%rdi),%eax
    7923:	ff c8                	dec    %eax
    7925:	85 c0                	test   %eax,%eax
    7927:	89 47 28             	mov    %eax,0x28(%rdi)
    792a:	74 04                	je     7930 <_ZN5boost15recursive_mutex9do_unlockEv+0x10>
    792c:	f3 c3                	repz retq 
    792e:	66 90                	xchg   %ax,%ax
    7930:	e9 b3 e6 ff ff       	jmpq   5fe8 <pthread_mutex_unlock@plt>
    7935:	90                   	nop    
    7936:	66 66 66 90          	xchg   %ax,%ax
    793a:	66 66 90             	xchg   %ax,%ax
    793d:	66 66 90             	xchg   %ax,%ax

0000000000007940 <_ZN5boost15recursive_mutex7do_lockERNS0_8cv_stateE>:
    7940:	48 8b 06             	mov    (%rsi),%rax
    7943:	89 47 28             	mov    %eax,0x28(%rdi)
    7946:	c3                   	retq   
    7947:	90                   	nop    
    7948:	66 66 66 90          	xchg   %ax,%ax
    794c:	66 66 66 90          	xchg   %ax,%ax

0000000000007950 <_ZN5boost15recursive_mutex9do_unlockERNS0_8cv_stateE>:
    7950:	8b 47 28             	mov    0x28(%rdi),%eax
    7953:	48 89 7e 08          	mov    %rdi,0x8(%rsi)
    7957:	c7 47 28 00 00 00 00 	movl   $0x0,0x28(%rdi)
    795e:	48 89 06             	mov    %rax,(%rsi)
    7961:	c3                   	retq   
    7962:	66 66 66 90          	xchg   %ax,%ax
    7966:	66 66 66 90          	xchg   %ax,%ax
    796a:	66 66 90             	xchg   %ax,%ax
    796d:	66 66 90             	xchg   %ax,%ax

0000000000007970 <_ZN5boost19recursive_try_mutexC2Ev>:
    7970:	48 89 5c 24 f0       	mov    %rbx,0xfffffffffffffff0(%rsp)
    7975:	48 89 6c 24 f8       	mov    %rbp,0xfffffffffffffff8(%rsp)
    797a:	48 83 ec 18          	sub    $0x18,%rsp
    797e:	48 89 fd             	mov    %rdi,%rbp
    7981:	c7 47 28 00 00 00 00 	movl   $0x0,0x28(%rdi)
    7988:	48 8d 7c 24 04       	lea    0x4(%rsp),%rdi
    798d:	e8 26 e3 ff ff       	callq  5cb8 <pthread_mutexattr_init@plt>
    7992:	48 8d 7c 24 04       	lea    0x4(%rsp),%rdi
    7997:	be 01 00 00 00       	mov    $0x1,%esi
    799c:	e8 e7 e4 ff ff       	callq  5e88 <pthread_mutexattr_settype@plt>
    79a1:	48 8d 74 24 04       	lea    0x4(%rsp),%rsi
    79a6:	48 89 ef             	mov    %rbp,%rdi
    79a9:	e8 aa e5 ff ff       	callq  5f58 <pthread_mutex_init@plt>
    79ae:	48 8d 7c 24 04       	lea    0x4(%rsp),%rdi
    79b3:	89 c3                	mov    %eax,%ebx
    79b5:	e8 be e3 ff ff       	callq  5d78 <pthread_mutexattr_destroy@plt>
    79ba:	85 db                	test   %ebx,%ebx
    79bc:	75 12                	jne    79d0 <_ZN5boost19recursive_try_mutexC2Ev+0x60>
    79be:	48 8b 5c 24 08       	mov    0x8(%rsp),%rbx
    79c3:	48 8b 6c 24 10       	mov    0x10(%rsp),%rbp
    79c8:	48 83 c4 18          	add    $0x18,%rsp
    79cc:	c3                   	retq   
    79cd:	66 66 90             	xchg   %ax,%ax
    79d0:	bf 10 00 00 00       	mov    $0x10,%edi
    79d5:	e8 fe e3 ff ff       	callq  5dd8 <__cxa_allocate_exception@plt>
    79da:	48 89 c3             	mov    %rax,%rbx
    79dd:	48 89 c7             	mov    %rax,%rdi
    79e0:	e8 f3 e6 ff ff       	callq  60d8 <_ZN5boost21thread_resource_errorC1Ev@plt>
    79e5:	48 8b 15 2c 48 10 00 	mov    1067052(%rip),%rdx        # 10c218 <_DYNAMIC+0x1e0>
    79ec:	48 8b 35 c5 48 10 00 	mov    1067205(%rip),%rsi        # 10c2b8 <_DYNAMIC+0x280>
    79f3:	48 89 df             	mov    %rbx,%rdi
    79f6:	e8 6d e6 ff ff       	callq  6068 <__cxa_throw@plt>
    79fb:	66 66 90             	xchg   %ax,%ax
    79fe:	66 90                	xchg   %ax,%ax
    7a00:	48 89 df             	mov    %rbx,%rdi
    7a03:	48 89 c5             	mov    %rax,%rbp
    7a06:	e8 3d e2 ff ff       	callq  5c48 <__cxa_free_exception@plt>
    7a0b:	48 89 ef             	mov    %rbp,%rdi
    7a0e:	e8 25 e6 ff ff       	callq  6038 <_Unwind_Resume@plt>
    7a13:	48 89 c5             	mov    %rax,%rbp
    7a16:	eb f3                	jmp    7a0b <_ZN5boost19recursive_try_mutexC2Ev+0x9b>
    7a18:	66 66 66 90          	xchg   %ax,%ax
    7a1c:	66 66 66 90          	xchg   %ax,%ax

0000000000007a20 <_ZN5boost19recursive_try_mutexC1Ev>:
    7a20:	48 89 5c 24 f0       	mov    %rbx,0xfffffffffffffff0(%rsp)
    7a25:	48 89 6c 24 f8       	mov    %rbp,0xfffffffffffffff8(%rsp)
    7a2a:	48 83 ec 18          	sub    $0x18,%rsp
    7a2e:	48 89 fd             	mov    %rdi,%rbp
    7a31:	c7 47 28 00 00 00 00 	movl   $0x0,0x28(%rdi)
    7a38:	48 8d 7c 24 04       	lea    0x4(%rsp),%rdi
    7a3d:	e8 76 e2 ff ff       	callq  5cb8 <pthread_mutexattr_init@plt>
    7a42:	48 8d 7c 24 04       	lea    0x4(%rsp),%rdi
    7a47:	be 01 00 00 00       	mov    $0x1,%esi
    7a4c:	e8 37 e4 ff ff       	callq  5e88 <pthread_mutexattr_settype@plt>
    7a51:	48 8d 74 24 04       	lea    0x4(%rsp),%rsi
    7a56:	48 89 ef             	mov    %rbp,%rdi
    7a59:	e8 fa e4 ff ff       	callq  5f58 <pthread_mutex_init@plt>
    7a5e:	48 8d 7c 24 04       	lea    0x4(%rsp),%rdi
    7a63:	89 c3                	mov    %eax,%ebx
    7a65:	e8 0e e3 ff ff       	callq  5d78 <pthread_mutexattr_destroy@plt>
    7a6a:	85 db                	test   %ebx,%ebx
    7a6c:	75 12                	jne    7a80 <_ZN5boost19recursive_try_mutexC1Ev+0x60>
    7a6e:	48 8b 5c 24 08       	mov    0x8(%rsp),%rbx
    7a73:	48 8b 6c 24 10       	mov    0x10(%rsp),%rbp
    7a78:	48 83 c4 18          	add    $0x18,%rsp
    7a7c:	c3                   	retq   
    7a7d:	66 66 90             	xchg   %ax,%ax
    7a80:	bf 10 00 00 00       	mov    $0x10,%edi
    7a85:	e8 4e e3 ff ff       	callq  5dd8 <__cxa_allocate_exception@plt>
    7a8a:	48 89 c3             	mov    %rax,%rbx
    7a8d:	48 89 c7             	mov    %rax,%rdi
    7a90:	e8 43 e6 ff ff       	callq  60d8 <_ZN5boost21thread_resource_errorC1Ev@plt>
    7a95:	48 8b 15 7c 47 10 00 	mov    1066876(%rip),%rdx        # 10c218 <_DYNAMIC+0x1e0>
    7a9c:	48 8b 35 15 48 10 00 	mov    1067029(%rip),%rsi        # 10c2b8 <_DYNAMIC+0x280>
    7aa3:	48 89 df             	mov    %rbx,%rdi
    7aa6:	e8 bd e5 ff ff       	callq  6068 <__cxa_throw@plt>
    7aab:	66 66 90             	xchg   %ax,%ax
    7aae:	66 90                	xchg   %ax,%ax
    7ab0:	48 89 df             	mov    %rbx,%rdi
    7ab3:	48 89 c5             	mov    %rax,%rbp
    7ab6:	e8 8d e1 ff ff       	callq  5c48 <__cxa_free_exception@plt>
    7abb:	48 89 ef             	mov    %rbp,%rdi
    7abe:	e8 75 e5 ff ff       	callq  6038 <_Unwind_Resume@plt>
    7ac3:	48 89 c5             	mov    %rax,%rbp
    7ac6:	eb f3                	jmp    7abb <_ZN5boost19recursive_try_mutexC1Ev+0x9b>
    7ac8:	66 66 66 90          	xchg   %ax,%ax
    7acc:	66 66 66 90          	xchg   %ax,%ax

0000000000007ad0 <_ZN5boost19recursive_try_mutexD2Ev>:
    7ad0:	48 83 ec 08          	sub    $0x8,%rsp
    7ad4:	e8 0f e1 ff ff       	callq  5be8 <pthread_mutex_destroy@plt>
    7ad9:	48 83 c4 08          	add    $0x8,%rsp
    7add:	c3                   	retq   
    7ade:	66 90                	xchg   %ax,%ax

0000000000007ae0 <_ZN5boost19recursive_try_mutexD1Ev>:
    7ae0:	48 83 ec 08          	sub    $0x8,%rsp
    7ae4:	e8 ff e0 ff ff       	callq  5be8 <pthread_mutex_destroy@plt>
    7ae9:	48 83 c4 08          	add    $0x8,%rsp
    7aed:	c3                   	retq   
    7aee:	66 90                	xchg   %ax,%ax

0000000000007af0 <_ZN5boost19recursive_try_mutex7do_lockEv>:
    7af0:	53                   	push   %rbx
    7af1:	48 89 fb             	mov    %rdi,%rbx
    7af4:	e8 5f e2 ff ff       	callq  5d58 <pthread_mutex_lock@plt>
    7af9:	8b 43 28             	mov    0x28(%rbx),%eax
    7afc:	ff c0                	inc    %eax
    7afe:	83 f8 01             	cmp    $0x1,%eax
    7b01:	89 43 28             	mov    %eax,0x28(%rbx)
    7b04:	77 02                	ja     7b08 <_ZN5boost19recursive_try_mutex7do_lockEv+0x18>
    7b06:	5b                   	pop    %rbx
    7b07:	c3                   	retq   
    7b08:	48 89 df             	mov    %rbx,%rdi
    7b0b:	5b                   	pop    %rbx
    7b0c:	e9 d7 e4 ff ff       	jmpq   5fe8 <pthread_mutex_unlock@plt>
    7b11:	90                   	nop    
    7b12:	66 66 66 90          	xchg   %ax,%ax
    7b16:	66 66 66 90          	xchg   %ax,%ax
    7b1a:	66 66 90             	xchg   %ax,%ax
    7b1d:	66 66 90             	xchg   %ax,%ax

0000000000007b20 <_ZN5boost19recursive_try_mutex10do_trylockEv>:
    7b20:	53                   	push   %rbx
    7b21:	48 89 fb             	mov    %rdi,%rbx
    7b24:	e8 5f e2 ff ff       	callq  5d88 <pthread_mutex_trylock@plt>
    7b29:	31 d2                	xor    %edx,%edx
    7b2b:	85 c0                	test   %eax,%eax
    7b2d:	75 12                	jne    7b41 <_ZN5boost19recursive_try_mutex10do_trylockEv+0x21>
    7b2f:	8b 43 28             	mov    0x28(%rbx),%eax
    7b32:	ff c0                	inc    %eax
    7b34:	83 f8 01             	cmp    $0x1,%eax
    7b37:	89 43 28             	mov    %eax,0x28(%rbx)
    7b3a:	77 09                	ja     7b45 <_ZN5boost19recursive_try_mutex10do_trylockEv+0x25>
    7b3c:	ba 01 00 00 00       	mov    $0x1,%edx
    7b41:	5b                   	pop    %rbx
    7b42:	89 d0                	mov    %edx,%eax
    7b44:	c3                   	retq   
    7b45:	48 89 df             	mov    %rbx,%rdi
    7b48:	e8 9b e4 ff ff       	callq  5fe8 <pthread_mutex_unlock@plt>
    7b4d:	ba 01 00 00 00       	mov    $0x1,%edx
    7b52:	eb ed                	jmp    7b41 <_ZN5boost19recursive_try_mutex10do_trylockEv+0x21>
    7b54:	66 66 66 90          	xchg   %ax,%ax
    7b58:	66 66 66 90          	xchg   %ax,%ax
    7b5c:	66 66 66 90          	xchg   %ax,%ax

0000000000007b60 <_ZN5boost19recursive_try_mutex9do_unlockEv>:
    7b60:	8b 47 28             	mov    0x28(%rdi),%eax
    7b63:	ff c8                	dec    %eax
    7b65:	85 c0                	test   %eax,%eax
    7b67:	89 47 28             	mov    %eax,0x28(%rdi)
    7b6a:	74 04                	je     7b70 <_ZN5boost19recursive_try_mutex9do_unlockEv+0x10>
    7b6c:	f3 c3                	repz retq 
    7b6e:	66 90                	xchg   %ax,%ax
    7b70:	e9 73 e4 ff ff       	jmpq   5fe8 <pthread_mutex_unlock@plt>
    7b75:	90                   	nop    
    7b76:	66 66 66 90          	xchg   %ax,%ax
    7b7a:	66 66 90             	xchg   %ax,%ax
    7b7d:	66 66 90             	xchg   %ax,%ax

0000000000007b80 <_ZN5boost19recursive_try_mutex7do_lockERNS0_8cv_stateE>:
    7b80:	48 8b 06             	mov    (%rsi),%rax
    7b83:	89 47 28             	mov    %eax,0x28(%rdi)
    7b86:	c3                   	retq   
    7b87:	90                   	nop    
    7b88:	66 66 66 90          	xchg   %ax,%ax
    7b8c:	66 66 66 90          	xchg   %ax,%ax

0000000000007b90 <_ZN5boost19recursive_try_mutex9do_unlockERNS0_8cv_stateE>:
    7b90:	8b 47 28             	mov    0x28(%rdi),%eax
    7b93:	48 89 7e 08          	mov    %rdi,0x8(%rsi)
    7b97:	c7 47 28 00 00 00 00 	movl   $0x0,0x28(%rdi)
    7b9e:	48 89 06             	mov    %rax,(%rsi)
    7ba1:	c3                   	retq   
    7ba2:	66 66 66 90          	xchg   %ax,%ax
    7ba6:	66 66 66 90          	xchg   %ax,%ax
    7baa:	66 66 90             	xchg   %ax,%ax
    7bad:	66 66 90             	xchg   %ax,%ax

0000000000007bb0 <_ZN5boost21recursive_timed_mutexC2Ev>:
    7bb0:	55                   	push   %rbp
    7bb1:	31 f6                	xor    %esi,%esi
    7bb3:	53                   	push   %rbx
    7bb4:	48 89 fb             	mov    %rdi,%rbx
    7bb7:	48 83 ec 08          	sub    $0x8,%rsp
    7bbb:	c6 47 60 00          	movb   $0x0,0x60(%rdi)
    7bbf:	c7 47 64 00 00 00 00 	movl   $0x0,0x64(%rdi)
    7bc6:	e8 8d e3 ff ff       	callq  5f58 <pthread_mutex_init@plt>
    7bcb:	85 c0                	test   %eax,%eax
    7bcd:	74 31                	je     7c00 <_ZN5boost21recursive_timed_mutexC2Ev+0x50>
    7bcf:	bf 10 00 00 00       	mov    $0x10,%edi
    7bd4:	e8 ff e1 ff ff       	callq  5dd8 <__cxa_allocate_exception@plt>
    7bd9:	48 89 c3             	mov    %rax,%rbx
    7bdc:	48 89 c7             	mov    %rax,%rdi
    7bdf:	e8 f4 e4 ff ff       	callq  60d8 <_ZN5boost21thread_resource_errorC1Ev@plt>
    7be4:	48 8b 15 2d 46 10 00 	mov    1066541(%rip),%rdx        # 10c218 <_DYNAMIC+0x1e0>
    7beb:	48 8b 35 c6 46 10 00 	mov    1066694(%rip),%rsi        # 10c2b8 <_DYNAMIC+0x280>
    7bf2:	48 89 df             	mov    %rbx,%rdi
    7bf5:	e8 6e e4 ff ff       	callq  6068 <__cxa_throw@plt>
    7bfa:	66 66 90             	xchg   %ax,%ax
    7bfd:	66 66 90             	xchg   %ax,%ax
    7c00:	48 8d 7b 28          	lea    0x28(%rbx),%rdi
    7c04:	31 f6                	xor    %esi,%esi
    7c06:	e8 cd e2 ff ff       	callq  5ed8 <pthread_cond_init@plt>
    7c0b:	85 c0                	test   %eax,%eax
    7c0d:	75 26                	jne    7c35 <_ZN5boost21recursive_timed_mutexC2Ev+0x85>
    7c0f:	48 83 c4 08          	add    $0x8,%rsp
    7c13:	5b                   	pop    %rbx
    7c14:	5d                   	pop    %rbp
    7c15:	c3                   	retq   
    7c16:	48 89 df             	mov    %rbx,%rdi
    7c19:	48 89 c5             	mov    %rax,%rbp
    7c1c:	e8 27 e0 ff ff       	callq  5c48 <__cxa_free_exception@plt>
    7c21:	48 89 ef             	mov    %rbp,%rdi
    7c24:	e8 0f e4 ff ff       	callq  6038 <_Unwind_Resume@plt>
    7c29:	66 66 66 90          	xchg   %ax,%ax
    7c2d:	66 66 90             	xchg   %ax,%ax
    7c30:	48 89 c5             	mov    %rax,%rbp
    7c33:	eb ec                	jmp    7c21 <_ZN5boost21recursive_timed_mutexC2Ev+0x71>
    7c35:	48 89 df             	mov    %rbx,%rdi
    7c38:	e8 ab df ff ff       	callq  5be8 <pthread_mutex_destroy@plt>
    7c3d:	bf 10 00 00 00       	mov    $0x10,%edi
    7c42:	e8 91 e1 ff ff       	callq  5dd8 <__cxa_allocate_exception@plt>
    7c47:	48 89 c3             	mov    %rax,%rbx
    7c4a:	48 89 c7             	mov    %rax,%rdi
    7c4d:	e8 86 e4 ff ff       	callq  60d8 <_ZN5boost21thread_resource_errorC1Ev@plt>
    7c52:	eb 90                	jmp    7be4 <_ZN5boost21recursive_timed_mutexC2Ev+0x34>
    7c54:	66 66 66 90          	xchg   %ax,%ax
    7c58:	66 66 66 90          	xchg   %ax,%ax
    7c5c:	66 66 66 90          	xchg   %ax,%ax

0000000000007c60 <_ZN5boost21recursive_timed_mutexC1Ev>:
    7c60:	55                   	push   %rbp
    7c61:	31 f6                	xor    %esi,%esi
    7c63:	53                   	push   %rbx
    7c64:	48 89 fb             	mov    %rdi,%rbx
    7c67:	48 83 ec 08          	sub    $0x8,%rsp
    7c6b:	c6 47 60 00          	movb   $0x0,0x60(%rdi)
    7c6f:	c7 47 64 00 00 00 00 	movl   $0x0,0x64(%rdi)
    7c76:	e8 dd e2 ff ff       	callq  5f58 <pthread_mutex_init@plt>
    7c7b:	85 c0                	test   %eax,%eax
    7c7d:	74 31                	je     7cb0 <_ZN5boost21recursive_timed_mutexC1Ev+0x50>
    7c7f:	bf 10 00 00 00       	mov    $0x10,%edi
    7c84:	e8 4f e1 ff ff       	callq  5dd8 <__cxa_allocate_exception@plt>
    7c89:	48 89 c3             	mov    %rax,%rbx
    7c8c:	48 89 c7             	mov    %rax,%rdi
    7c8f:	e8 44 e4 ff ff       	callq  60d8 <_ZN5boost21thread_resource_errorC1Ev@plt>
    7c94:	48 8b 15 7d 45 10 00 	mov    1066365(%rip),%rdx        # 10c218 <_DYNAMIC+0x1e0>
    7c9b:	48 8b 35 16 46 10 00 	mov    1066518(%rip),%rsi        # 10c2b8 <_DYNAMIC+0x280>
    7ca2:	48 89 df             	mov    %rbx,%rdi
    7ca5:	e8 be e3 ff ff       	callq  6068 <__cxa_throw@plt>
    7caa:	66 66 90             	xchg   %ax,%ax
    7cad:	66 66 90             	xchg   %ax,%ax
    7cb0:	48 8d 7b 28          	lea    0x28(%rbx),%rdi
    7cb4:	31 f6                	xor    %esi,%esi
    7cb6:	e8 1d e2 ff ff       	callq  5ed8 <pthread_cond_init@plt>
    7cbb:	85 c0                	test   %eax,%eax
    7cbd:	75 26                	jne    7ce5 <_ZN5boost21recursive_timed_mutexC1Ev+0x85>
    7cbf:	48 83 c4 08          	add    $0x8,%rsp
    7cc3:	5b                   	pop    %rbx
    7cc4:	5d                   	pop    %rbp
    7cc5:	c3                   	retq   
    7cc6:	48 89 df             	mov    %rbx,%rdi
    7cc9:	48 89 c5             	mov    %rax,%rbp
    7ccc:	e8 77 df ff ff       	callq  5c48 <__cxa_free_exception@plt>
    7cd1:	48 89 ef             	mov    %rbp,%rdi
    7cd4:	e8 5f e3 ff ff       	callq  6038 <_Unwind_Resume@plt>
    7cd9:	66 66 66 90          	xchg   %ax,%ax
    7cdd:	66 66 90             	xchg   %ax,%ax
    7ce0:	48 89 c5             	mov    %rax,%rbp
    7ce3:	eb ec                	jmp    7cd1 <_ZN5boost21recursive_timed_mutexC1Ev+0x71>
    7ce5:	48 89 df             	mov    %rbx,%rdi
    7ce8:	e8 fb de ff ff       	callq  5be8 <pthread_mutex_destroy@plt>
    7ced:	bf 10 00 00 00       	mov    $0x10,%edi
    7cf2:	e8 e1 e0 ff ff       	callq  5dd8 <__cxa_allocate_exception@plt>
    7cf7:	48 89 c3             	mov    %rax,%rbx
    7cfa:	48 89 c7             	mov    %rax,%rdi
    7cfd:	e8 d6 e3 ff ff       	callq  60d8 <_ZN5boost21thread_resource_errorC1Ev@plt>
    7d02:	eb 90                	jmp    7c94 <_ZN5boost21recursive_timed_mutexC1Ev+0x34>
    7d04:	66 66 66 90          	xchg   %ax,%ax
    7d08:	66 66 66 90          	xchg   %ax,%ax
    7d0c:	66 66 66 90          	xchg   %ax,%ax

0000000000007d10 <_ZN5boost21recursive_timed_mutexD2Ev>:
    7d10:	53                   	push   %rbx
    7d11:	48 89 fb             	mov    %rdi,%rbx
    7d14:	48 83 c3 28          	add    $0x28,%rbx
    7d18:	e8 cb de ff ff       	callq  5be8 <pthread_mutex_destroy@plt>
    7d1d:	48 89 df             	mov    %rbx,%rdi
    7d20:	e8 d3 e2 ff ff       	callq  5ff8 <pthread_cond_destroy@plt>
    7d25:	5b                   	pop    %rbx
    7d26:	c3                   	retq   
    7d27:	90                   	nop    
    7d28:	66 66 66 90          	xchg   %ax,%ax
    7d2c:	66 66 66 90          	xchg   %ax,%ax

0000000000007d30 <_ZN5boost21recursive_timed_mutexD1Ev>:
    7d30:	53                   	push   %rbx
    7d31:	48 89 fb             	mov    %rdi,%rbx
    7d34:	48 83 c3 28          	add    $0x28,%rbx
    7d38:	e8 ab de ff ff       	callq  5be8 <pthread_mutex_destroy@plt>
    7d3d:	48 89 df             	mov    %rbx,%rdi
    7d40:	e8 b3 e2 ff ff       	callq  5ff8 <pthread_cond_destroy@plt>
    7d45:	5b                   	pop    %rbx
    7d46:	c3                   	retq   
    7d47:	90                   	nop    
    7d48:	66 66 66 90          	xchg   %ax,%ax
    7d4c:	66 66 66 90          	xchg   %ax,%ax

0000000000007d50 <_ZN5boost21recursive_timed_mutex7do_lockEv>:
    7d50:	48 89 5c 24 e8       	mov    %rbx,0xffffffffffffffe8(%rsp)
    7d55:	4c 89 64 24 f8       	mov    %r12,0xfffffffffffffff8(%rsp)
    7d5a:	48 89 fb             	mov    %rdi,%rbx
    7d5d:	48 89 6c 24 f0       	mov    %rbp,0xfffffffffffffff0(%rsp)
    7d62:	48 83 ec 18          	sub    $0x18,%rsp
    7d66:	e8 ed df ff ff       	callq  5d58 <pthread_mutex_lock@plt>
    7d6b:	e8 28 de ff ff       	callq  5b98 <pthread_self@plt>
    7d70:	80 7b 60 00          	cmpb   $0x0,0x60(%rbx)
    7d74:	49 89 c4             	mov    %rax,%r12
    7d77:	75 29                	jne    7da2 <_ZN5boost21recursive_timed_mutex7do_lockEv+0x52>
    7d79:	4c 89 63 58          	mov    %r12,0x58(%rbx)
    7d7d:	c6 43 60 01          	movb   $0x1,0x60(%rbx)
    7d81:	48 89 df             	mov    %rbx,%rdi
    7d84:	c7 43 64 01 00 00 00 	movl   $0x1,0x64(%rbx)
    7d8b:	48 8b 1c 24          	mov    (%rsp),%rbx
    7d8f:	48 8b 6c 24 08       	mov    0x8(%rsp),%rbp
    7d94:	4c 8b 64 24 10       	mov    0x10(%rsp),%r12
    7d99:	48 83 c4 18          	add    $0x18,%rsp
    7d9d:	e9 46 e2 ff ff       	jmpq   5fe8 <pthread_mutex_unlock@plt>
    7da2:	48 8b 7b 58          	mov    0x58(%rbx),%rdi
    7da6:	48 89 c6             	mov    %rax,%rsi
    7da9:	e8 ca e0 ff ff       	callq  5e78 <pthread_equal@plt>
    7dae:	85 c0                	test   %eax,%eax
    7db0:	75 21                	jne    7dd3 <_ZN5boost21recursive_timed_mutex7do_lockEv+0x83>
    7db2:	80 7b 60 00          	cmpb   $0x0,0x60(%rbx)
    7db6:	74 c1                	je     7d79 <_ZN5boost21recursive_timed_mutex7do_lockEv+0x29>
    7db8:	48 8d 6b 28          	lea    0x28(%rbx),%rbp
    7dbc:	66 66 66 90          	xchg   %ax,%ax
    7dc0:	48 89 de             	mov    %rbx,%rsi
    7dc3:	48 89 ef             	mov    %rbp,%rdi
    7dc6:	e8 dd dd ff ff       	callq  5ba8 <pthread_cond_wait@plt>
    7dcb:	80 7b 60 00          	cmpb   $0x0,0x60(%rbx)
    7dcf:	75 ef                	jne    7dc0 <_ZN5boost21recursive_timed_mutex7do_lockEv+0x70>
    7dd1:	eb a6                	jmp    7d79 <_ZN5boost21recursive_timed_mutex7do_lockEv+0x29>
    7dd3:	ff 43 64             	incl   0x64(%rbx)
    7dd6:	48 89 df             	mov    %rbx,%rdi
    7dd9:	48 8b 6c 24 08       	mov    0x8(%rsp),%rbp
    7dde:	48 8b 1c 24          	mov    (%rsp),%rbx
    7de2:	4c 8b 64 24 10       	mov    0x10(%rsp),%r12
    7de7:	48 83 c4 18          	add    $0x18,%rsp
    7deb:	e9 f8 e1 ff ff       	jmpq   5fe8 <pthread_mutex_unlock@plt>

0000000000007df0 <_ZN5boost21recursive_timed_mutex10do_trylockEv>:
    7df0:	48 89 5c 24 e8       	mov    %rbx,0xffffffffffffffe8(%rsp)
    7df5:	48 89 6c 24 f0       	mov    %rbp,0xfffffffffffffff0(%rsp)
    7dfa:	48 89 fb             	mov    %rdi,%rbx
    7dfd:	4c 89 64 24 f8       	mov    %r12,0xfffffffffffffff8(%rsp)
    7e02:	48 83 ec 18          	sub    $0x18,%rsp
    7e06:	45 31 e4             	xor    %r12d,%r12d
    7e09:	e8 4a df ff ff       	callq  5d58 <pthread_mutex_lock@plt>
    7e0e:	e8 85 dd ff ff       	callq  5b98 <pthread_self@plt>
    7e13:	80 7b 60 00          	cmpb   $0x0,0x60(%rbx)
    7e17:	48 89 c5             	mov    %rax,%rbp
    7e1a:	75 34                	jne    7e50 <_ZN5boost21recursive_timed_mutex10do_trylockEv+0x60>
    7e1c:	48 89 6b 58          	mov    %rbp,0x58(%rbx)
    7e20:	c6 43 60 01          	movb   $0x1,0x60(%rbx)
    7e24:	c7 43 64 01 00 00 00 	movl   $0x1,0x64(%rbx)
    7e2b:	41 bc 01 00 00 00    	mov    $0x1,%r12d
    7e31:	48 89 df             	mov    %rbx,%rdi
    7e34:	e8 af e1 ff ff       	callq  5fe8 <pthread_mutex_unlock@plt>
    7e39:	41 0f b6 c4          	movzbl %r12b,%eax
    7e3d:	48 8b 1c 24          	mov    (%rsp),%rbx
    7e41:	48 8b 6c 24 08       	mov    0x8(%rsp),%rbp
    7e46:	4c 8b 64 24 10       	mov    0x10(%rsp),%r12
    7e4b:	48 83 c4 18          	add    $0x18,%rsp
    7e4f:	c3                   	retq   
    7e50:	48 8b 7b 58          	mov    0x58(%rbx),%rdi
    7e54:	48 89 c6             	mov    %rax,%rsi
    7e57:	e8 1c e0 ff ff       	callq  5e78 <pthread_equal@plt>
    7e5c:	85 c0                	test   %eax,%eax
    7e5e:	74 05                	je     7e65 <_ZN5boost21recursive_timed_mutex10do_trylockEv+0x75>
    7e60:	ff 43 64             	incl   0x64(%rbx)
    7e63:	eb c6                	jmp    7e2b <_ZN5boost21recursive_timed_mutex10do_trylockEv+0x3b>
    7e65:	80 7b 60 00          	cmpb   $0x0,0x60(%rbx)
    7e69:	75 c6                	jne    7e31 <_ZN5boost21recursive_timed_mutex10do_trylockEv+0x41>
    7e6b:	66 66 90             	xchg   %ax,%ax
    7e6e:	66 90                	xchg   %ax,%ax
    7e70:	eb aa                	jmp    7e1c <_ZN5boost21recursive_timed_mutex10do_trylockEv+0x2c>
    7e72:	66 66 66 90          	xchg   %ax,%ax
    7e76:	66 66 66 90          	xchg   %ax,%ax
    7e7a:	66 66 90             	xchg   %ax,%ax
    7e7d:	66 66 90             	xchg   %ax,%ax

0000000000007e80 <_ZN5boost21recursive_timed_mutex12do_timedlockERKNS_5xtimeE>:
    7e80:	48 89 5c 24 d8       	mov    %rbx,0xffffffffffffffd8(%rsp)
    7e85:	48 89 6c 24 e0       	mov    %rbp,0xffffffffffffffe0(%rsp)
    7e8a:	48 89 fb             	mov    %rdi,%rbx
    7e8d:	4c 89 6c 24 f0       	mov    %r13,0xfffffffffffffff0(%rsp)
    7e92:	4c 89 74 24 f8       	mov    %r14,0xfffffffffffffff8(%rsp)
    7e97:	48 89 f5             	mov    %rsi,%rbp
    7e9a:	4c 89 64 24 e8       	mov    %r12,0xffffffffffffffe8(%rsp)
    7e9f:	48 83 ec 38          	sub    $0x38,%rsp
    7ea3:	45 31 ed             	xor    %r13d,%r13d
    7ea6:	e8 ad de ff ff       	callq  5d58 <pthread_mutex_lock@plt>
    7eab:	e8 e8 dc ff ff       	callq  5b98 <pthread_self@plt>
    7eb0:	0f b6 73 60          	movzbl 0x60(%rbx),%esi
    7eb4:	49 89 c6             	mov    %rax,%r14
    7eb7:	40 84 f6             	test   %sil,%sil
    7eba:	0f 85 bc 00 00 00    	jne    7f7c <_ZN5boost21recursive_timed_mutex12do_timedlockERKNS_5xtimeE+0xfc>
    7ec0:	48 63 4d 08          	movslq 0x8(%rbp),%rcx
    7ec4:	48 63 7d 00          	movslq 0x0(%rbp),%rdi
    7ec8:	48 81 f9 ff c9 9a 3b 	cmp    $0x3b9ac9ff,%rcx
    7ecf:	7f 71                	jg     7f42 <_ZN5boost21recursive_timed_mutex12do_timedlockERKNS_5xtimeE+0xc2>
    7ed1:	48 89 4c 24 08       	mov    %rcx,0x8(%rsp)
    7ed6:	48 89 3c 24          	mov    %rdi,(%rsp)
    7eda:	40 84 f6             	test   %sil,%sil
    7edd:	74 24                	je     7f03 <_ZN5boost21recursive_timed_mutex12do_timedlockERKNS_5xtimeE+0x83>
    7edf:	48 8d 6b 28          	lea    0x28(%rbx),%rbp
    7ee3:	49 89 e4             	mov    %rsp,%r12
    7ee6:	4c 89 e2             	mov    %r12,%rdx
    7ee9:	48 89 de             	mov    %rbx,%rsi
    7eec:	48 89 ef             	mov    %rbp,%rdi
    7eef:	e8 c4 dc ff ff       	callq  5bb8 <pthread_cond_timedwait@plt>
    7ef4:	83 f8 6e             	cmp    $0x6e,%eax
    7ef7:	0f 84 9d 00 00 00    	je     7f9a <_ZN5boost21recursive_timed_mutex12do_timedlockERKNS_5xtimeE+0x11a>
    7efd:	80 7b 60 00          	cmpb   $0x0,0x60(%rbx)
    7f01:	75 e3                	jne    7ee6 <_ZN5boost21recursive_timed_mutex12do_timedlockERKNS_5xtimeE+0x66>
    7f03:	4c 89 73 58          	mov    %r14,0x58(%rbx)
    7f07:	c6 43 60 01          	movb   $0x1,0x60(%rbx)
    7f0b:	c7 43 64 01 00 00 00 	movl   $0x1,0x64(%rbx)
    7f12:	41 bd 01 00 00 00    	mov    $0x1,%r13d
    7f18:	48 89 df             	mov    %rbx,%rdi
    7f1b:	e8 c8 e0 ff ff       	callq  5fe8 <pthread_mutex_unlock@plt>
    7f20:	41 0f b6 c5          	movzbl %r13b,%eax
    7f24:	48 8b 5c 24 10       	mov    0x10(%rsp),%rbx
    7f29:	48 8b 6c 24 18       	mov    0x18(%rsp),%rbp
    7f2e:	4c 8b 64 24 20       	mov    0x20(%rsp),%r12
    7f33:	4c 8b 6c 24 28       	mov    0x28(%rsp),%r13
    7f38:	4c 8b 74 24 30       	mov    0x30(%rsp),%r14
    7f3d:	48 83 c4 38          	add    $0x38,%rsp
    7f41:	c3                   	retq   
    7f42:	48 89 c8             	mov    %rcx,%rax
    7f45:	49 b8 b3 94 d6 26 e8 	mov    $0x112e0be826d694b3,%r8
    7f4c:	0b 2e 11 
    7f4f:	48 89 cd             	mov    %rcx,%rbp
    7f52:	49 f7 e8             	imul   %r8
    7f55:	48 c1 fd 3f          	sar    $0x3f,%rbp
    7f59:	48 c1 fa 1a          	sar    $0x1a,%rdx
    7f5d:	48 29 ea             	sub    %rbp,%rdx
    7f60:	48 8d 04 17          	lea    (%rdi,%rdx,1),%rax
    7f64:	48 69 d2 00 ca 9a 3b 	imul   $0x3b9aca00,%rdx,%rdx
    7f6b:	48 89 04 24          	mov    %rax,(%rsp)
    7f6f:	48 29 d1             	sub    %rdx,%rcx
    7f72:	48 89 4c 24 08       	mov    %rcx,0x8(%rsp)
    7f77:	e9 5e ff ff ff       	jmpq   7eda <_ZN5boost21recursive_timed_mutex12do_timedlockERKNS_5xtimeE+0x5a>
    7f7c:	48 8b 7b 58          	mov    0x58(%rbx),%rdi
    7f80:	48 89 c6             	mov    %rax,%rsi
    7f83:	e8 f0 de ff ff       	callq  5e78 <pthread_equal@plt>
    7f88:	85 c0                	test   %eax,%eax
    7f8a:	74 05                	je     7f91 <_ZN5boost21recursive_timed_mutex12do_timedlockERKNS_5xtimeE+0x111>
    7f8c:	ff 43 64             	incl   0x64(%rbx)
    7f8f:	eb 81                	jmp    7f12 <_ZN5boost21recursive_timed_mutex12do_timedlockERKNS_5xtimeE+0x92>
    7f91:	0f b6 73 60          	movzbl 0x60(%rbx),%esi
    7f95:	e9 26 ff ff ff       	jmpq   7ec0 <_ZN5boost21recursive_timed_mutex12do_timedlockERKNS_5xtimeE+0x40>
    7f9a:	80 7b 60 00          	cmpb   $0x0,0x60(%rbx)
    7f9e:	66 90                	xchg   %ax,%ax
    7fa0:	0f 85 72 ff ff ff    	jne    7f18 <_ZN5boost21recursive_timed_mutex12do_timedlockERKNS_5xtimeE+0x98>
    7fa6:	e9 58 ff ff ff       	jmpq   7f03 <_ZN5boost21recursive_timed_mutex12do_timedlockERKNS_5xtimeE+0x83>
    7fab:	90                   	nop    
    7fac:	66 66 66 90          	xchg   %ax,%ax

0000000000007fb0 <_ZN5boost21recursive_timed_mutex9do_unlockEv>:
    7fb0:	48 89 5c 24 f0       	mov    %rbx,0xfffffffffffffff0(%rsp)
    7fb5:	48 89 6c 24 f8       	mov    %rbp,0xfffffffffffffff8(%rsp)
    7fba:	48 89 fb             	mov    %rdi,%rbx
    7fbd:	48 83 ec 18          	sub    $0x18,%rsp
    7fc1:	e8 92 dd ff ff       	callq  5d58 <pthread_mutex_lock@plt>
    7fc6:	e8 cd db ff ff       	callq  5b98 <pthread_self@plt>
    7fcb:	80 7b 60 00          	cmpb   $0x0,0x60(%rbx)
    7fcf:	75 22                	jne    7ff3 <_ZN5boost21recursive_timed_mutex9do_unlockEv+0x43>
    7fd1:	8b 43 64             	mov    0x64(%rbx),%eax
    7fd4:	ff c8                	dec    %eax
    7fd6:	85 c0                	test   %eax,%eax
    7fd8:	89 43 64             	mov    %eax,0x64(%rbx)
    7fdb:	74 59                	je     8036 <_ZN5boost21recursive_timed_mutex9do_unlockEv+0x86>
    7fdd:	48 89 df             	mov    %rbx,%rdi
    7fe0:	48 8b 6c 24 10       	mov    0x10(%rsp),%rbp
    7fe5:	48 8b 5c 24 08       	mov    0x8(%rsp),%rbx
    7fea:	48 83 c4 18          	add    $0x18,%rsp
    7fee:	e9 f5 df ff ff       	jmpq   5fe8 <pthread_mutex_unlock@plt>
    7ff3:	48 8b 7b 58          	mov    0x58(%rbx),%rdi
    7ff7:	48 89 c6             	mov    %rax,%rsi
    7ffa:	e8 79 de ff ff       	callq  5e78 <pthread_equal@plt>
    7fff:	85 c0                	test   %eax,%eax
    8001:	75 ce                	jne    7fd1 <_ZN5boost21recursive_timed_mutex9do_unlockEv+0x21>
    8003:	48 89 df             	mov    %rbx,%rdi
    8006:	e8 dd df ff ff       	callq  5fe8 <pthread_mutex_unlock@plt>
    800b:	bf 10 00 00 00       	mov    $0x10,%edi
    8010:	e8 c3 dd ff ff       	callq  5dd8 <__cxa_allocate_exception@plt>
    8015:	48 89 c5             	mov    %rax,%rbp
    8018:	48 89 c7             	mov    %rax,%rdi
    801b:	e8 58 df ff ff       	callq  5f78 <_ZN5boost10lock_errorC1Ev@plt>
    8020:	48 8b 15 b1 42 10 00 	mov    1065649(%rip),%rdx        # 10c2d8 <_DYNAMIC+0x2a0>
    8027:	48 8b 35 02 42 10 00 	mov    1065474(%rip),%rsi        # 10c230 <_DYNAMIC+0x1f8>
    802e:	48 89 ef             	mov    %rbp,%rdi
    8031:	e8 32 e0 ff ff       	callq  6068 <__cxa_throw@plt>
    8036:	48 8d 7b 28          	lea    0x28(%rbx),%rdi
    803a:	c6 43 60 00          	movb   $0x0,0x60(%rbx)
    803e:	e8 55 de ff ff       	callq  5e98 <pthread_cond_signal@plt>
    8043:	48 89 df             	mov    %rbx,%rdi
    8046:	48 8b 6c 24 10       	mov    0x10(%rsp),%rbp
    804b:	48 8b 5c 24 08       	mov    0x8(%rsp),%rbx
    8050:	48 83 c4 18          	add    $0x18,%rsp
    8054:	e9 8f df ff ff       	jmpq   5fe8 <pthread_mutex_unlock@plt>
    8059:	48 89 c3             	mov    %rax,%rbx
    805c:	48 89 ef             	mov    %rbp,%rdi
    805f:	e8 e4 db ff ff       	callq  5c48 <__cxa_free_exception@plt>
    8064:	48 89 df             	mov    %rbx,%rdi
    8067:	e8 cc df ff ff       	callq  6038 <_Unwind_Resume@plt>
    806c:	66 66 66 90          	xchg   %ax,%ax

0000000000008070 <_ZN5boost21recursive_timed_mutex7do_lockERNS0_8cv_stateE>:
    8070:	41 54                	push   %r12
    8072:	49 89 f4             	mov    %rsi,%r12
    8075:	55                   	push   %rbp
    8076:	53                   	push   %rbx
    8077:	80 7f 60 00          	cmpb   $0x0,0x60(%rdi)
    807b:	48 89 fb             	mov    %rdi,%rbx
    807e:	74 15                	je     8095 <_ZN5boost21recursive_timed_mutex7do_lockERNS0_8cv_stateE+0x25>
    8080:	48 8d 6f 28          	lea    0x28(%rdi),%rbp
    8084:	48 89 de             	mov    %rbx,%rsi
    8087:	48 89 ef             	mov    %rbp,%rdi
    808a:	e8 19 db ff ff       	callq  5ba8 <pthread_cond_wait@plt>
    808f:	80 7b 60 00          	cmpb   $0x0,0x60(%rbx)
    8093:	75 ef                	jne    8084 <_ZN5boost21recursive_timed_mutex7do_lockERNS0_8cv_stateE+0x14>
    8095:	e8 fe da ff ff       	callq  5b98 <pthread_self@plt>
    809a:	48 89 43 58          	mov    %rax,0x58(%rbx)
    809e:	49 8b 04 24          	mov    (%r12),%rax
    80a2:	48 89 df             	mov    %rbx,%rdi
    80a5:	c6 43 60 01          	movb   $0x1,0x60(%rbx)
    80a9:	89 43 64             	mov    %eax,0x64(%rbx)
    80ac:	5b                   	pop    %rbx
    80ad:	5d                   	pop    %rbp
    80ae:	41 5c                	pop    %r12
    80b0:	e9 33 df ff ff       	jmpq   5fe8 <pthread_mutex_unlock@plt>
    80b5:	90                   	nop    
    80b6:	66 66 66 90          	xchg   %ax,%ax
    80ba:	66 66 90             	xchg   %ax,%ax
    80bd:	66 66 90             	xchg   %ax,%ax

00000000000080c0 <_ZN5boost21recursive_timed_mutex9do_unlockERNS0_8cv_stateE>:
    80c0:	48 89 5c 24 f0       	mov    %rbx,0xfffffffffffffff0(%rsp)
    80c5:	4c 89 64 24 f8       	mov    %r12,0xfffffffffffffff8(%rsp)
    80ca:	48 89 fb             	mov    %rdi,%rbx
    80cd:	48 83 ec 18          	sub    $0x18,%rsp
    80d1:	49 89 f4             	mov    %rsi,%r12
    80d4:	e8 7f dc ff ff       	callq  5d58 <pthread_mutex_lock@plt>
    80d9:	48 8d 7b 28          	lea    0x28(%rbx),%rdi
    80dd:	c6 43 60 00          	movb   $0x0,0x60(%rbx)
    80e1:	e8 b2 dd ff ff       	callq  5e98 <pthread_cond_signal@plt>
    80e6:	8b 43 64             	mov    0x64(%rbx),%eax
    80e9:	49 89 5c 24 08       	mov    %rbx,0x8(%r12)
    80ee:	c7 43 64 00 00 00 00 	movl   $0x0,0x64(%rbx)
    80f5:	48 8b 5c 24 08       	mov    0x8(%rsp),%rbx
    80fa:	49 89 04 24          	mov    %rax,(%r12)
    80fe:	4c 8b 64 24 10       	mov    0x10(%rsp),%r12
    8103:	48 83 c4 18          	add    $0x18,%rsp
    8107:	c3                   	retq   
    8108:	90                   	nop    
    8109:	90                   	nop    
    810a:	90                   	nop    
    810b:	90                   	nop    
    810c:	90                   	nop    
    810d:	90                   	nop    
    810e:	90                   	nop    
    810f:	90                   	nop    

0000000000008110 <_ZN5boost6threadC2Ev>:
    8110:	53                   	push   %rbx
    8111:	48 89 fb             	mov    %rdi,%rbx
    8114:	c6 47 08 00          	movb   $0x0,0x8(%rdi)
    8118:	e8 7b da ff ff       	callq  5b98 <pthread_self@plt>
    811d:	48 89 03             	mov    %rax,(%rbx)
    8120:	5b                   	pop    %rbx
    8121:	c3                   	retq   
    8122:	66 66 66 90          	xchg   %ax,%ax
    8126:	66 66 66 90          	xchg   %ax,%ax
    812a:	66 66 90             	xchg   %ax,%ax
    812d:	66 66 90             	xchg   %ax,%ax

0000000000008130 <_ZN5boost6threadC1Ev>:
    8130:	53                   	push   %rbx
    8131:	48 89 fb             	mov    %rdi,%rbx
    8134:	c6 47 08 00          	movb   $0x0,0x8(%rdi)
    8138:	e8 5b da ff ff       	callq  5b98 <pthread_self@plt>
    813d:	48 89 03             	mov    %rax,(%rbx)
    8140:	5b                   	pop    %rbx
    8141:	c3                   	retq   
    8142:	66 66 66 90          	xchg   %ax,%ax
    8146:	66 66 66 90          	xchg   %ax,%ax
    814a:	66 66 90             	xchg   %ax,%ax
    814d:	66 66 90             	xchg   %ax,%ax

0000000000008150 <_ZN5boost6threadD2Ev>:
    8150:	48 83 ec 08          	sub    $0x8,%rsp
    8154:	80 7f 08 00          	cmpb   $0x0,0x8(%rdi)
    8158:	75 06                	jne    8160 <_ZN5boost6threadD2Ev+0x10>
    815a:	48 83 c4 08          	add    $0x8,%rsp
    815e:	c3                   	retq   
    815f:	90                   	nop    
    8160:	48 8b 3f             	mov    (%rdi),%rdi
    8163:	e8 20 db ff ff       	callq  5c88 <pthread_detach@plt>
    8168:	48 83 c4 08          	add    $0x8,%rsp
    816c:	c3                   	retq   
    816d:	90                   	nop    
    816e:	66 90                	xchg   %ax,%ax

0000000000008170 <_ZN5boost6threadD1Ev>:
    8170:	48 83 ec 08          	sub    $0x8,%rsp
    8174:	80 7f 08 00          	cmpb   $0x0,0x8(%rdi)
    8178:	75 06                	jne    8180 <_ZN5boost6threadD1Ev+0x10>
    817a:	48 83 c4 08          	add    $0x8,%rsp
    817e:	c3                   	retq   
    817f:	90                   	nop    
    8180:	48 8b 3f             	mov    (%rdi),%rdi
    8183:	e8 00 db ff ff       	callq  5c88 <pthread_detach@plt>
    8188:	48 83 c4 08          	add    $0x8,%rsp
    818c:	c3                   	retq   
    818d:	90                   	nop    
    818e:	66 90                	xchg   %ax,%ax

0000000000008190 <_ZNK5boost6threadeqERKS0_>:
    8190:	48 83 ec 08          	sub    $0x8,%rsp
    8194:	48 8b 36             	mov    (%rsi),%rsi
    8197:	48 8b 3f             	mov    (%rdi),%rdi
    819a:	e8 d9 dc ff ff       	callq  5e78 <pthread_equal@plt>
    819f:	85 c0                	test   %eax,%eax
    81a1:	0f 95 c0             	setne  %al
    81a4:	48 83 c4 08          	add    $0x8,%rsp
    81a8:	0f b6 c0             	movzbl %al,%eax
    81ab:	c3                   	retq   
    81ac:	66 66 66 90          	xchg   %ax,%ax

00000000000081b0 <_ZNK5boost6threadneERKS0_>:
    81b0:	48 83 ec 08          	sub    $0x8,%rsp
    81b4:	e8 af da ff ff       	callq  5c68 <_ZNK5boost6threadeqERKS0_@plt>
    81b9:	83 f0 01             	xor    $0x1,%eax
    81bc:	48 83 c4 08          	add    $0x8,%rsp
    81c0:	0f b6 c0             	movzbl %al,%eax
    81c3:	c3                   	retq   
    81c4:	66 66 66 90          	xchg   %ax,%ax
    81c8:	66 66 66 90          	xchg   %ax,%ax
    81cc:	66 66 66 90          	xchg   %ax,%ax

00000000000081d0 <_ZN5boost6thread4joinEv>:
    81d0:	53                   	push   %rbx
    81d1:	48 89 fb             	mov    %rdi,%rbx
    81d4:	48 8b 3f             	mov    (%rdi),%rdi
    81d7:	31 f6                	xor    %esi,%esi
    81d9:	e8 ca dd ff ff       	callq  5fa8 <pthread_join@plt>
    81de:	c6 43 08 00          	movb   $0x0,0x8(%rbx)
    81e2:	5b                   	pop    %rbx
    81e3:	c3                   	retq   
    81e4:	66 66 66 90          	xchg   %ax,%ax
    81e8:	66 66 66 90          	xchg   %ax,%ax
    81ec:	66 66 66 90          	xchg   %ax,%ax

00000000000081f0 <_ZN5boost6thread5sleepERKNS_5xtimeE>:
    81f0:	41 55                	push   %r13
    81f2:	41 54                	push   %r12
    81f4:	45 31 e4             	xor    %r12d,%r12d
    81f7:	55                   	push   %rbp
    81f8:	48 89 fd             	mov    %rdi,%rbp
    81fb:	53                   	push   %rbx
    81fc:	48 83 ec 28          	sub    $0x28,%rsp
    8200:	48 8d 5c 24 10       	lea    0x10(%rsp),%rbx
    8205:	49 89 e5             	mov    %rsp,%r13
    8208:	be 01 00 00 00       	mov    $0x1,%esi
    820d:	4c 89 ef             	mov    %r13,%rdi
    8210:	e8 b3 db ff ff       	callq  5dc8 <_ZN5boost9xtime_getEPNS_5xtimeEi@plt>
    8215:	48 8b 4d 00          	mov    0x0(%rbp),%rcx
    8219:	48 8b 14 24          	mov    (%rsp),%rdx
    821d:	48 39 d1             	cmp    %rdx,%rcx
    8220:	0f 84 9c 00 00 00    	je     82c2 <_ZN5boost6thread5sleepERKNS_5xtimeE+0xd2>
    8226:	0f 8e a6 00 00 00    	jle    82d2 <_ZN5boost6thread5sleepERKNS_5xtimeE+0xe2>
    822c:	48 29 d1             	sub    %rdx,%rcx
    822f:	48 89 0b             	mov    %rcx,(%rbx)
    8232:	48 8b 75 08          	mov    0x8(%rbp),%rsi
    8236:	48 89 ca             	mov    %rcx,%rdx
    8239:	48 89 f1             	mov    %rsi,%rcx
    823c:	48 2b 4c 24 08       	sub    0x8(%rsp),%rcx
    8241:	0f 88 ac 00 00 00    	js     82f3 <_ZN5boost6thread5sleepERKNS_5xtimeE+0x103>
    8247:	48 89 4b 08          	mov    %rcx,0x8(%rbx)
    824b:	48 8b 4b 08          	mov    0x8(%rbx),%rcx
    824f:	48 81 f9 ff c9 9a 3b 	cmp    $0x3b9ac9ff,%rcx
    8256:	7e 2f                	jle    8287 <_ZN5boost6thread5sleepERKNS_5xtimeE+0x97>
    8258:	48 89 c8             	mov    %rcx,%rax
    825b:	49 ba b3 94 d6 26 e8 	mov    $0x112e0be826d694b3,%r10
    8262:	0b 2e 11 
    8265:	49 89 c9             	mov    %rcx,%r9
    8268:	49 f7 ea             	imul   %r10
    826b:	49 c1 f9 3f          	sar    $0x3f,%r9
    826f:	48 c1 fa 1a          	sar    $0x1a,%rdx
    8273:	4c 29 ca             	sub    %r9,%rdx
    8276:	48 01 13             	add    %rdx,(%rbx)
    8279:	4c 69 c2 00 ca 9a 3b 	imul   $0x3b9aca00,%rdx,%r8
    8280:	4c 29 c1             	sub    %r8,%rcx
    8283:	48 89 4b 08          	mov    %rcx,0x8(%rbx)
    8287:	31 f6                	xor    %esi,%esi
    8289:	48 89 df             	mov    %rbx,%rdi
    828c:	e8 77 da ff ff       	callq  5d08 <nanosleep@plt>
    8291:	be 01 00 00 00       	mov    $0x1,%esi
    8296:	4c 89 ef             	mov    %r13,%rdi
    8299:	e8 2a db ff ff       	callq  5dc8 <_ZN5boost9xtime_getEPNS_5xtimeEi@plt>
    829e:	48 8b 0c 24          	mov    (%rsp),%rcx
    82a2:	48 39 4d 00          	cmp    %rcx,0x0(%rbp)
    82a6:	74 3b                	je     82e3 <_ZN5boost6thread5sleepERKNS_5xtimeE+0xf3>
    82a8:	7e 0d                	jle    82b7 <_ZN5boost6thread5sleepERKNS_5xtimeE+0xc7>
    82aa:	41 ff c4             	inc    %r12d
    82ad:	41 83 fc 04          	cmp    $0x4,%r12d
    82b1:	0f 8e 51 ff ff ff    	jle    8208 <_ZN5boost6thread5sleepERKNS_5xtimeE+0x18>
    82b7:	48 83 c4 28          	add    $0x28,%rsp
    82bb:	5b                   	pop    %rbx
    82bc:	5d                   	pop    %rbp
    82bd:	41 5c                	pop    %r12
    82bf:	41 5d                	pop    %r13
    82c1:	c3                   	retq   
    82c2:	48 8b 45 08          	mov    0x8(%rbp),%rax
    82c6:	2b 44 24 08          	sub    0x8(%rsp),%eax
    82ca:	85 c0                	test   %eax,%eax
    82cc:	0f 8f 5a ff ff ff    	jg     822c <_ZN5boost6thread5sleepERKNS_5xtimeE+0x3c>
    82d2:	48 c7 03 00 00 00 00 	movq   $0x0,(%rbx)
    82d9:	48 c7 43 08 00 00 00 	movq   $0x0,0x8(%rbx)
    82e0:	00 
    82e1:	eb a4                	jmp    8287 <_ZN5boost6thread5sleepERKNS_5xtimeE+0x97>
    82e3:	4c 8b 5d 08          	mov    0x8(%rbp),%r11
    82e7:	44 2b 5c 24 08       	sub    0x8(%rsp),%r11d
    82ec:	45 85 db             	test   %r11d,%r11d
    82ef:	7f b9                	jg     82aa <_ZN5boost6thread5sleepERKNS_5xtimeE+0xba>
    82f1:	eb c4                	jmp    82b7 <_ZN5boost6thread5sleepERKNS_5xtimeE+0xc7>
    82f3:	48 8d 7a ff          	lea    0xffffffffffffffff(%rdx),%rdi
    82f7:	48 8d 91 00 ca 9a 3b 	lea    0x3b9aca00(%rcx),%rdx
    82fe:	48 89 3b             	mov    %rdi,(%rbx)
    8301:	48 89 53 08          	mov    %rdx,0x8(%rbx)
    8305:	e9 41 ff ff ff       	jmpq   824b <_ZN5boost6thread5sleepERKNS_5xtimeE+0x5b>
    830a:	66 66 90             	xchg   %ax,%ax
    830d:	66 66 90             	xchg   %ax,%ax

0000000000008310 <_ZN5boost6thread5yieldEv>:
    8310:	e9 03 da ff ff       	jmpq   5d18 <sched_yield@plt>
    8315:	90                   	nop    
    8316:	66 66 66 90          	xchg   %ax,%ax
    831a:	66 66 90             	xchg   %ax,%ax
    831d:	66 66 90             	xchg   %ax,%ax

0000000000008320 <_ZN5boost12thread_group8join_allEv>:
    8320:	53                   	push   %rbx
    8321:	48 89 fb             	mov    %rdi,%rbx
    8324:	48 8d 7f 10          	lea    0x10(%rdi),%rdi
    8328:	48 83 ec 20          	sub    $0x20,%rsp
    832c:	48 89 7c 24 10       	mov    %rdi,0x10(%rsp)
    8331:	c6 44 24 18 00       	movb   $0x0,0x18(%rsp)
    8336:	e8 cd d8 ff ff       	callq  5c08 <_ZN5boost5mutex7do_lockEv@plt>
    833b:	48 8b 03             	mov    (%rbx),%rax
    833e:	c6 44 24 18 01       	movb   $0x1,0x18(%rsp)
    8343:	48 39 d8             	cmp    %rbx,%rax
    8346:	48 89 44 24 08       	mov    %rax,0x8(%rsp)
    834b:	74 1b                	je     8368 <_ZN5boost12thread_group8join_allEv+0x48>
    834d:	48 8b 78 10          	mov    0x10(%rax),%rdi
    8351:	e8 52 d9 ff ff       	callq  5ca8 <_ZN5boost6thread4joinEv@plt>
    8356:	48 8b 44 24 08       	mov    0x8(%rsp),%rax
    835b:	48 8b 00             	mov    (%rax),%rax
    835e:	48 89 44 24 08       	mov    %rax,0x8(%rsp)
    8363:	48 39 d8             	cmp    %rbx,%rax
    8366:	75 e5                	jne    834d <_ZN5boost12thread_group8join_allEv+0x2d>
    8368:	80 7c 24 18 00       	cmpb   $0x0,0x18(%rsp)
    836d:	75 23                	jne    8392 <_ZN5boost12thread_group8join_allEv+0x72>
    836f:	48 83 c4 20          	add    $0x20,%rsp
    8373:	5b                   	pop    %rbx
    8374:	c3                   	retq   
    8375:	48 89 c7             	mov    %rax,%rdi
    8378:	e8 bb dc ff ff       	callq  6038 <_Unwind_Resume@plt>
    837d:	66 66 90             	xchg   %ax,%ax
    8380:	80 7c 24 18 00       	cmpb   $0x0,0x18(%rsp)
    8385:	48 89 c3             	mov    %rax,%rbx
    8388:	75 19                	jne    83a3 <_ZN5boost12thread_group8join_allEv+0x83>
    838a:	48 89 df             	mov    %rbx,%rdi
    838d:	e8 a6 dc ff ff       	callq  6038 <_Unwind_Resume@plt>
    8392:	48 8b 7c 24 10       	mov    0x10(%rsp),%rdi
    8397:	e8 fc dc ff ff       	callq  6098 <_ZN5boost5mutex9do_unlockEv@plt>
    839c:	c6 44 24 18 00       	movb   $0x0,0x18(%rsp)
    83a1:	eb cc                	jmp    836f <_ZN5boost12thread_group8join_allEv+0x4f>
    83a3:	48 8b 7c 24 10       	mov    0x10(%rsp),%rdi
    83a8:	e8 eb dc ff ff       	callq  6098 <_ZN5boost5mutex9do_unlockEv@plt>
    83ad:	c6 44 24 18 00       	movb   $0x0,0x18(%rsp)
    83b2:	eb d6                	jmp    838a <_ZN5boost12thread_group8join_allEv+0x6a>
    83b4:	eb bf                	jmp    8375 <_ZN5boost12thread_group8join_allEv+0x55>
    83b6:	66 66 66 90          	xchg   %ax,%ax
    83ba:	66 66 90             	xchg   %ax,%ax
    83bd:	66 66 90             	xchg   %ax,%ax
    83c0:	55                   	push   %rbp
    83c1:	53                   	push   %rbx
    83c2:	48 89 fb             	mov    %rdi,%rbx
    83c5:	48 83 ec 38          	sub    $0x38,%rsp
    83c9:	48 8b 57 60          	mov    0x60(%rdi),%rdx
    83cd:	48 c7 44 24 10 00 00 	movq   $0x0,0x10(%rsp)
    83d4:	00 00 
    83d6:	48 8d 6c 24 10       	lea    0x10(%rsp),%rbp
    83db:	48 8b 02             	mov    (%rdx),%rax
    83de:	48 85 c0             	test   %rax,%rax
    83e1:	0f 85 9e 00 00 00    	jne    8485 <_ZN5boost12thread_group8join_allEv+0x165>
    83e7:	48 89 1c 24          	mov    %rbx,(%rsp)
    83eb:	c6 44 24 08 00       	movb   $0x0,0x8(%rsp)
    83f0:	48 89 df             	mov    %rbx,%rdi
    83f3:	e8 10 d8 ff ff       	callq  5c08 <_ZN5boost5mutex7do_lockEv@plt>
    83f8:	c6 44 24 08 01       	movb   $0x1,0x8(%rsp)
    83fd:	c6 43 68 01          	movb   $0x1,0x68(%rbx)
    8401:	48 8d 7b 30          	lea    0x30(%rbx),%rdi
    8405:	e8 ae db ff ff       	callq  5fb8 <_ZN5boost6detail14condition_impl10notify_oneEv@plt>
    840a:	80 7c 24 08 00       	cmpb   $0x0,0x8(%rsp)
    840f:	74 0e                	je     841f <_ZN5boost12thread_group8join_allEv+0xff>
    8411:	48 8b 3c 24          	mov    (%rsp),%rdi
    8415:	e8 7e dc ff ff       	callq  6098 <_ZN5boost5mutex9do_unlockEv@plt>
    841a:	c6 44 24 08 00       	movb   $0x0,0x8(%rsp)
    841f:	48 89 ef             	mov    %rbp,%rdi
    8422:	e8 11 d9 ff ff       	callq  5d38 <_ZNK5boost9function0IvSaINS_13function_baseEEEclEv@plt>
    8427:	48 8b 44 24 10       	mov    0x10(%rsp),%rax
    842c:	48 85 c0             	test   %rax,%rax
    842f:	74 19                	je     844a <_ZN5boost12thread_group8join_allEv+0x12a>
    8431:	48 8b 00             	mov    (%rax),%rax
    8434:	48 8d 7d 08          	lea    0x8(%rbp),%rdi
    8438:	48 85 c0             	test   %rax,%rax
    843b:	0f 85 91 00 00 00    	jne    84d2 <_ZN5boost12thread_group8join_allEv+0x1b2>
    8441:	48 c7 44 24 10 00 00 	movq   $0x0,0x10(%rsp)
    8448:	00 00 
    844a:	48 83 c4 38          	add    $0x38,%rsp
    844e:	31 c0                	xor    %eax,%eax
    8450:	5b                   	pop    %rbx
    8451:	5d                   	pop    %rbp
    8452:	c3                   	retq   
    8453:	80 7c 24 08 00       	cmpb   $0x0,0x8(%rsp)
    8458:	48 89 c3             	mov    %rax,%rbx
    845b:	74 16                	je     8473 <_ZN5boost12thread_group8join_allEv+0x153>
    845d:	48 8b 3c 24          	mov    (%rsp),%rdi
    8461:	e8 32 dc ff ff       	callq  6098 <_ZN5boost5mutex9do_unlockEv@plt>
    8466:	c6 44 24 08 00       	movb   $0x0,0x8(%rsp)
    846b:	eb 06                	jmp    8473 <_ZN5boost12thread_group8join_allEv+0x153>
    846d:	66 66 90             	xchg   %ax,%ax
    8470:	48 89 c3             	mov    %rax,%rbx
    8473:	48 8b 44 24 10       	mov    0x10(%rsp),%rax
    8478:	48 85 c0             	test   %rax,%rax
    847b:	75 23                	jne    84a0 <_ZN5boost12thread_group8join_allEv+0x180>
    847d:	48 89 df             	mov    %rbx,%rdi
    8480:	e8 b3 db ff ff       	callq  6038 <_Unwind_Resume@plt>
    8485:	48 89 44 24 10       	mov    %rax,0x10(%rsp)
    848a:	48 8b 02             	mov    (%rdx),%rax
    848d:	48 8d 7a 08          	lea    0x8(%rdx),%rdi
    8491:	48 8d 75 08          	lea    0x8(%rbp),%rsi
    8495:	31 d2                	xor    %edx,%edx
    8497:	ff 10                	callq  *(%rax)
    8499:	e9 49 ff ff ff       	jmpq   83e7 <_ZN5boost12thread_group8join_allEv+0xc7>
    849e:	66 90                	xchg   %ax,%ax
    84a0:	48 8b 00             	mov    (%rax),%rax
    84a3:	48 8d 7d 08          	lea    0x8(%rbp),%rdi
    84a7:	48 85 c0             	test   %rax,%rax
    84aa:	75 0b                	jne    84b7 <_ZN5boost12thread_group8join_allEv+0x197>
    84ac:	48 c7 44 24 10 00 00 	movq   $0x0,0x10(%rsp)
    84b3:	00 00 
    84b5:	eb c6                	jmp    847d <_ZN5boost12thread_group8join_allEv+0x15d>
    84b7:	ba 01 00 00 00       	mov    $0x1,%edx
    84bc:	48 89 fe             	mov    %rdi,%rsi
    84bf:	ff d0                	callq  *%rax
    84c1:	eb e9                	jmp    84ac <_ZN5boost12thread_group8join_allEv+0x18c>
    84c3:	eb ab                	jmp    8470 <_ZN5boost12thread_group8join_allEv+0x150>
    84c5:	66 66 66 90          	xchg   %ax,%ax
    84c9:	66 66 66 90          	xchg   %ax,%ax
    84cd:	66 66 90             	xchg   %ax,%ax
    84d0:	eb 9e                	jmp    8470 <_ZN5boost12thread_group8join_allEv+0x150>
    84d2:	ba 01 00 00 00       	mov    $0x1,%edx
    84d7:	48 89 fe             	mov    %rdi,%rsi
    84da:	66 66 90             	xchg   %ax,%ax
    84dd:	66 66 90             	xchg   %ax,%ax
    84e0:	ff d0                	callq  *%rax
    84e2:	e9 5a ff ff ff       	jmpq   8441 <_ZN5boost12thread_group8join_allEv+0x121>
    84e7:	90                   	nop    
    84e8:	66 66 66 90          	xchg   %ax,%ax
    84ec:	66 66 66 90          	xchg   %ax,%ax

00000000000084f0 <_ZN5boost6threadC1ERKNS_9function0IvSaINS_13function_baseEEEE>:
    84f0:	48 89 5c 24 e0       	mov    %rbx,0xffffffffffffffe0(%rsp)
    84f5:	48 89 6c 24 e8       	mov    %rbp,0xffffffffffffffe8(%rsp)
    84fa:	48 89 fb             	mov    %rdi,%rbx
    84fd:	4c 89 64 24 f0       	mov    %r12,0xfffffffffffffff0(%rsp)
    8502:	4c 89 6c 24 f8       	mov    %r13,0xfffffffffffffff8(%rsp)
    8507:	48 81 ec b8 00 00 00 	sub    $0xb8,%rsp
    850e:	4c 8d 64 24 20       	lea    0x20(%rsp),%r12
    8513:	c6 47 08 01          	movb   $0x1,0x8(%rdi)
    8517:	48 89 f5             	mov    %rsi,%rbp
    851a:	4c 89 e7             	mov    %r12,%rdi
    851d:	e8 26 da ff ff       	callq  5f48 <_ZN5boost5mutexC1Ev@plt>
    8522:	49 8d 7c 24 30       	lea    0x30(%r12),%rdi
    8527:	e8 cc d8 ff ff       	callq  5df8 <_ZN5boost6detail14condition_implC1Ev@plt>
    852c:	48 8d 15 8d fe ff ff 	lea    -371(%rip),%rdx        # 83c0 <_ZN5boost12thread_group8join_allEv+0xa0>
    8533:	31 f6                	xor    %esi,%esi
    8535:	4c 89 e1             	mov    %r12,%rcx
    8538:	48 89 df             	mov    %rbx,%rdi
    853b:	49 89 6c 24 60       	mov    %rbp,0x60(%r12)
    8540:	41 c6 44 24 68 00    	movb   $0x0,0x68(%r12)
    8546:	e8 fd d7 ff ff       	callq  5d48 <pthread_create@plt>
    854b:	85 c0                	test   %eax,%eax
    854d:	74 49                	je     8598 <_ZN5boost6threadC1ERKNS_9function0IvSaINS_13function_baseEEEE+0xa8>
    854f:	bf 10 00 00 00       	mov    $0x10,%edi
    8554:	e8 7f d8 ff ff       	callq  5dd8 <__cxa_allocate_exception@plt>
    8559:	48 89 c5             	mov    %rax,%rbp
    855c:	48 89 c7             	mov    %rax,%rdi
    855f:	e8 74 db ff ff       	callq  60d8 <_ZN5boost21thread_resource_errorC1Ev@plt>
    8564:	48 8b 15 ad 3c 10 00 	mov    1064109(%rip),%rdx        # 10c218 <_DYNAMIC+0x1e0>
    856b:	48 8b 35 46 3d 10 00 	mov    1064262(%rip),%rsi        # 10c2b8 <_DYNAMIC+0x280>
    8572:	48 89 ef             	mov    %rbp,%rdi
    8575:	e8 ee da ff ff       	callq  6068 <__cxa_throw@plt>
    857a:	66 66 90             	xchg   %ax,%ax
    857d:	66 66 90             	xchg   %ax,%ax
    8580:	48 89 c3             	mov    %rax,%rbx
    8583:	4c 89 e7             	mov    %r12,%rdi
    8586:	e8 1d db ff ff       	callq  60a8 <_ZN5boost5mutexD1Ev@plt>
    858b:	48 89 df             	mov    %rbx,%rdi
    858e:	e8 a5 da ff ff       	callq  6038 <_Unwind_Resume@plt>
    8593:	48 89 c3             	mov    %rax,%rbx
    8596:	eb f3                	jmp    858b <_ZN5boost6threadC1ERKNS_9function0IvSaINS_13function_baseEEEE+0x9b>
    8598:	4c 89 64 24 10       	mov    %r12,0x10(%rsp)
    859d:	c6 44 24 18 00       	movb   $0x0,0x18(%rsp)
    85a2:	4c 89 e7             	mov    %r12,%rdi
    85a5:	e8 5e d6 ff ff       	callq  5c08 <_ZN5boost5mutex7do_lockEv@plt>
    85aa:	c6 44 24 18 01       	movb   $0x1,0x18(%rsp)
    85af:	41 80 7c 24 68 00    	cmpb   $0x0,0x68(%r12)
    85b5:	75 46                	jne    85fd <_ZN5boost6threadC1ERKNS_9function0IvSaINS_13function_baseEEEE+0x10d>
    85b7:	4d 8d 6c 24 28       	lea    0x28(%r12),%r13
    85bc:	80 7c 24 18 00       	cmpb   $0x0,0x18(%rsp)
    85c1:	0f 84 cf 00 00 00    	je     8696 <_ZN5boost6threadC1ERKNS_9function0IvSaINS_13function_baseEEEE+0x1a6>
    85c7:	48 8b 5c 24 10       	mov    0x10(%rsp),%rbx
    85cc:	48 8d 6c 24 08       	lea    0x8(%rsp),%rbp
    85d1:	48 89 ee             	mov    %rbp,%rsi
    85d4:	48 89 df             	mov    %rbx,%rdi
    85d7:	e8 5c d8 ff ff       	callq  5e38 <_ZN5boost5mutex9do_unlockERNS0_8cv_stateE@plt>
    85dc:	48 8b 74 24 08       	mov    0x8(%rsp),%rsi
    85e1:	49 8d 7d 08          	lea    0x8(%r13),%rdi
    85e5:	e8 7e d7 ff ff       	callq  5d68 <_ZN5boost6detail14condition_impl7do_waitEP15pthread_mutex_t@plt>
    85ea:	48 89 ee             	mov    %rbp,%rsi
    85ed:	48 89 df             	mov    %rbx,%rdi
    85f0:	e8 63 d8 ff ff       	callq  5e58 <_ZN5boost5mutex7do_lockERNS0_8cv_stateE@plt>
    85f5:	41 80 7c 24 68 00    	cmpb   $0x0,0x68(%r12)
    85fb:	74 bf                	je     85bc <_ZN5boost6threadC1ERKNS_9function0IvSaINS_13function_baseEEEE+0xcc>
    85fd:	80 7c 24 18 00       	cmpb   $0x0,0x18(%rsp)
    8602:	74 0f                	je     8613 <_ZN5boost6threadC1ERKNS_9function0IvSaINS_13function_baseEEEE+0x123>
    8604:	48 8b 7c 24 10       	mov    0x10(%rsp),%rdi
    8609:	e8 8a da ff ff       	callq  6098 <_ZN5boost5mutex9do_unlockEv@plt>
    860e:	c6 44 24 18 00       	movb   $0x0,0x18(%rsp)
    8613:	49 8d 7c 24 30       	lea    0x30(%r12),%rdi
    8618:	e8 0b d7 ff ff       	callq  5d28 <_ZN5boost6detail14condition_implD1Ev@plt>
    861d:	4c 89 e7             	mov    %r12,%rdi
    8620:	e8 83 da ff ff       	callq  60a8 <_ZN5boost5mutexD1Ev@plt>
    8625:	48 8b 9c 24 98 00 00 	mov    0x98(%rsp),%rbx
    862c:	00 
    862d:	48 8b ac 24 a0 00 00 	mov    0xa0(%rsp),%rbp
    8634:	00 
    8635:	4c 8b a4 24 a8 00 00 	mov    0xa8(%rsp),%r12
    863c:	00 
    863d:	4c 8b ac 24 b0 00 00 	mov    0xb0(%rsp),%r13
    8644:	00 
    8645:	48 81 c4 b8 00 00 00 	add    $0xb8,%rsp
    864c:	c3                   	retq   
    864d:	66 66 90             	xchg   %ax,%ax
    8650:	48 89 c3             	mov    %rax,%rbx
    8653:	49 8d 7c 24 30       	lea    0x30(%r12),%rdi
    8658:	e8 cb d6 ff ff       	callq  5d28 <_ZN5boost6detail14condition_implD1Ev@plt>
    865d:	e9 21 ff ff ff       	jmpq   8583 <_ZN5boost6threadC1ERKNS_9function0IvSaINS_13function_baseEEEE+0x93>
    8662:	e9 19 ff ff ff       	jmpq   8580 <_ZN5boost6threadC1ERKNS_9function0IvSaINS_13function_baseEEEE+0x90>
    8667:	48 89 c3             	mov    %rax,%rbx
    866a:	48 89 ef             	mov    %rbp,%rdi
    866d:	66 66 90             	xchg   %ax,%ax
    8670:	e8 d3 d5 ff ff       	callq  5c48 <__cxa_free_exception@plt>
    8675:	eb dc                	jmp    8653 <_ZN5boost6threadC1ERKNS_9function0IvSaINS_13function_baseEEEE+0x163>
    8677:	48 89 c3             	mov    %rax,%rbx
    867a:	80 7c 24 18 00       	cmpb   $0x0,0x18(%rsp)
    867f:	74 d2                	je     8653 <_ZN5boost6threadC1ERKNS_9function0IvSaINS_13function_baseEEEE+0x163>
    8681:	48 8b 7c 24 10       	mov    0x10(%rsp),%rdi
    8686:	e8 0d da ff ff       	callq  6098 <_ZN5boost5mutex9do_unlockEv@plt>
    868b:	c6 44 24 18 00       	movb   $0x0,0x18(%rsp)
    8690:	eb c1                	jmp    8653 <_ZN5boost6threadC1ERKNS_9function0IvSaINS_13function_baseEEEE+0x163>
    8692:	eb bc                	jmp    8650 <_ZN5boost6threadC1ERKNS_9function0IvSaINS_13function_baseEEEE+0x160>
    8694:	eb ba                	jmp    8650 <_ZN5boost6threadC1ERKNS_9function0IvSaINS_13function_baseEEEE+0x160>
    8696:	bf 10 00 00 00       	mov    $0x10,%edi
    869b:	66 66 90             	xchg   %ax,%ax
    869e:	66 90                	xchg   %ax,%ax
    86a0:	e8 33 d7 ff ff       	callq  5dd8 <__cxa_allocate_exception@plt>
    86a5:	48 89 c5             	mov    %rax,%rbp
    86a8:	48 89 c7             	mov    %rax,%rdi
    86ab:	e8 c8 d8 ff ff       	callq  5f78 <_ZN5boost10lock_errorC1Ev@plt>
    86b0:	48 8b 15 21 3c 10 00 	mov    1063969(%rip),%rdx        # 10c2d8 <_DYNAMIC+0x2a0>
    86b7:	48 8b 35 72 3b 10 00 	mov    1063794(%rip),%rsi        # 10c230 <_DYNAMIC+0x1f8>
    86be:	48 89 ef             	mov    %rbp,%rdi
    86c1:	e8 a2 d9 ff ff       	callq  6068 <__cxa_throw@plt>
    86c6:	48 89 c3             	mov    %rax,%rbx
    86c9:	48 89 ef             	mov    %rbp,%rdi
    86cc:	e8 77 d5 ff ff       	callq  5c48 <__cxa_free_exception@plt>
    86d1:	eb a7                	jmp    867a <_ZN5boost6threadC1ERKNS_9function0IvSaINS_13function_baseEEEE+0x18a>
    86d3:	90                   	nop    
    86d4:	66 66 66 90          	xchg   %ax,%ax
    86d8:	66 66 66 90          	xchg   %ax,%ax
    86dc:	66 66 66 90          	xchg   %ax,%ax

00000000000086e0 <_ZN5boost6threadC2ERKNS_9function0IvSaINS_13function_baseEEEE>:
    86e0:	48 89 5c 24 e0       	mov    %rbx,0xffffffffffffffe0(%rsp)
    86e5:	48 89 6c 24 e8       	mov    %rbp,0xffffffffffffffe8(%rsp)
    86ea:	48 89 fb             	mov    %rdi,%rbx
    86ed:	4c 89 64 24 f0       	mov    %r12,0xfffffffffffffff0(%rsp)
    86f2:	4c 89 6c 24 f8       	mov    %r13,0xfffffffffffffff8(%rsp)
    86f7:	48 81 ec b8 00 00 00 	sub    $0xb8,%rsp
    86fe:	4c 8d 64 24 20       	lea    0x20(%rsp),%r12
    8703:	c6 47 08 01          	movb   $0x1,0x8(%rdi)
    8707:	48 89 f5             	mov    %rsi,%rbp
    870a:	4c 89 e7             	mov    %r12,%rdi
    870d:	e8 36 d8 ff ff       	callq  5f48 <_ZN5boost5mutexC1Ev@plt>
    8712:	49 8d 7c 24 30       	lea    0x30(%r12),%rdi
    8717:	e8 dc d6 ff ff       	callq  5df8 <_ZN5boost6detail14condition_implC1Ev@plt>
    871c:	48 8d 15 9d fc ff ff 	lea    -867(%rip),%rdx        # 83c0 <_ZN5boost12thread_group8join_allEv+0xa0>
    8723:	31 f6                	xor    %esi,%esi
    8725:	4c 89 e1             	mov    %r12,%rcx
    8728:	48 89 df             	mov    %rbx,%rdi
    872b:	49 89 6c 24 60       	mov    %rbp,0x60(%r12)
    8730:	41 c6 44 24 68 00    	movb   $0x0,0x68(%r12)
    8736:	e8 0d d6 ff ff       	callq  5d48 <pthread_create@plt>
    873b:	85 c0                	test   %eax,%eax
    873d:	74 49                	je     8788 <_ZN5boost6threadC2ERKNS_9function0IvSaINS_13function_baseEEEE+0xa8>
    873f:	bf 10 00 00 00       	mov    $0x10,%edi
    8744:	e8 8f d6 ff ff       	callq  5dd8 <__cxa_allocate_exception@plt>
    8749:	48 89 c5             	mov    %rax,%rbp
    874c:	48 89 c7             	mov    %rax,%rdi
    874f:	e8 84 d9 ff ff       	callq  60d8 <_ZN5boost21thread_resource_errorC1Ev@plt>
    8754:	48 8b 15 bd 3a 10 00 	mov    1063613(%rip),%rdx        # 10c218 <_DYNAMIC+0x1e0>
    875b:	48 8b 35 56 3b 10 00 	mov    1063766(%rip),%rsi        # 10c2b8 <_DYNAMIC+0x280>
    8762:	48 89 ef             	mov    %rbp,%rdi
    8765:	e8 fe d8 ff ff       	callq  6068 <__cxa_throw@plt>
    876a:	66 66 90             	xchg   %ax,%ax
    876d:	66 66 90             	xchg   %ax,%ax
    8770:	48 89 c3             	mov    %rax,%rbx
    8773:	4c 89 e7             	mov    %r12,%rdi
    8776:	e8 2d d9 ff ff       	callq  60a8 <_ZN5boost5mutexD1Ev@plt>
    877b:	48 89 df             	mov    %rbx,%rdi
    877e:	e8 b5 d8 ff ff       	callq  6038 <_Unwind_Resume@plt>
    8783:	48 89 c3             	mov    %rax,%rbx
    8786:	eb f3                	jmp    877b <_ZN5boost6threadC2ERKNS_9function0IvSaINS_13function_baseEEEE+0x9b>
    8788:	4c 89 64 24 10       	mov    %r12,0x10(%rsp)
    878d:	c6 44 24 18 00       	movb   $0x0,0x18(%rsp)
    8792:	4c 89 e7             	mov    %r12,%rdi
    8795:	e8 6e d4 ff ff       	callq  5c08 <_ZN5boost5mutex7do_lockEv@plt>
    879a:	c6 44 24 18 01       	movb   $0x1,0x18(%rsp)
    879f:	41 80 7c 24 68 00    	cmpb   $0x0,0x68(%r12)
    87a5:	75 46                	jne    87ed <_ZN5boost6threadC2ERKNS_9function0IvSaINS_13function_baseEEEE+0x10d>
    87a7:	4d 8d 6c 24 28       	lea    0x28(%r12),%r13
    87ac:	80 7c 24 18 00       	cmpb   $0x0,0x18(%rsp)
    87b1:	0f 84 cf 00 00 00    	je     8886 <_ZN5boost6threadC2ERKNS_9function0IvSaINS_13function_baseEEEE+0x1a6>
    87b7:	48 8b 5c 24 10       	mov    0x10(%rsp),%rbx
    87bc:	48 8d 6c 24 08       	lea    0x8(%rsp),%rbp
    87c1:	48 89 ee             	mov    %rbp,%rsi
    87c4:	48 89 df             	mov    %rbx,%rdi
    87c7:	e8 6c d6 ff ff       	callq  5e38 <_ZN5boost5mutex9do_unlockERNS0_8cv_stateE@plt>
    87cc:	48 8b 74 24 08       	mov    0x8(%rsp),%rsi
    87d1:	49 8d 7d 08          	lea    0x8(%r13),%rdi
    87d5:	e8 8e d5 ff ff       	callq  5d68 <_ZN5boost6detail14condition_impl7do_waitEP15pthread_mutex_t@plt>
    87da:	48 89 ee             	mov    %rbp,%rsi
    87dd:	48 89 df             	mov    %rbx,%rdi
    87e0:	e8 73 d6 ff ff       	callq  5e58 <_ZN5boost5mutex7do_lockERNS0_8cv_stateE@plt>
    87e5:	41 80 7c 24 68 00    	cmpb   $0x0,0x68(%r12)
    87eb:	74 bf                	je     87ac <_ZN5boost6threadC2ERKNS_9function0IvSaINS_13function_baseEEEE+0xcc>
    87ed:	80 7c 24 18 00       	cmpb   $0x0,0x18(%rsp)
    87f2:	74 0f                	je     8803 <_ZN5boost6threadC2ERKNS_9function0IvSaINS_13function_baseEEEE+0x123>
    87f4:	48 8b 7c 24 10       	mov    0x10(%rsp),%rdi
    87f9:	e8 9a d8 ff ff       	callq  6098 <_ZN5boost5mutex9do_unlockEv@plt>
    87fe:	c6 44 24 18 00       	movb   $0x0,0x18(%rsp)
    8803:	49 8d 7c 24 30       	lea    0x30(%r12),%rdi
    8808:	e8 1b d5 ff ff       	callq  5d28 <_ZN5boost6detail14condition_implD1Ev@plt>
    880d:	4c 89 e7             	mov    %r12,%rdi
    8810:	e8 93 d8 ff ff       	callq  60a8 <_ZN5boost5mutexD1Ev@plt>
    8815:	48 8b 9c 24 98 00 00 	mov    0x98(%rsp),%rbx
    881c:	00 
    881d:	48 8b ac 24 a0 00 00 	mov    0xa0(%rsp),%rbp
    8824:	00 
    8825:	4c 8b a4 24 a8 00 00 	mov    0xa8(%rsp),%r12
    882c:	00 
    882d:	4c 8b ac 24 b0 00 00 	mov    0xb0(%rsp),%r13
    8834:	00 
    8835:	48 81 c4 b8 00 00 00 	add    $0xb8,%rsp
    883c:	c3                   	retq   
    883d:	66 66 90             	xchg   %ax,%ax
    8840:	48 89 c3             	mov    %rax,%rbx
    8843:	49 8d 7c 24 30       	lea    0x30(%r12),%rdi
    8848:	e8 db d4 ff ff       	callq  5d28 <_ZN5boost6detail14condition_implD1Ev@plt>
    884d:	e9 21 ff ff ff       	jmpq   8773 <_ZN5boost6threadC2ERKNS_9function0IvSaINS_13function_baseEEEE+0x93>
    8852:	e9 19 ff ff ff       	jmpq   8770 <_ZN5boost6threadC2ERKNS_9function0IvSaINS_13function_baseEEEE+0x90>
    8857:	48 89 c3             	mov    %rax,%rbx
    885a:	48 89 ef             	mov    %rbp,%rdi
    885d:	66 66 90             	xchg   %ax,%ax
    8860:	e8 e3 d3 ff ff       	callq  5c48 <__cxa_free_exception@plt>
    8865:	eb dc                	jmp    8843 <_ZN5boost6threadC2ERKNS_9function0IvSaINS_13function_baseEEEE+0x163>
    8867:	48 89 c3             	mov    %rax,%rbx
    886a:	80 7c 24 18 00       	cmpb   $0x0,0x18(%rsp)
    886f:	74 d2                	je     8843 <_ZN5boost6threadC2ERKNS_9function0IvSaINS_13function_baseEEEE+0x163>
    8871:	48 8b 7c 24 10       	mov    0x10(%rsp),%rdi
    8876:	e8 1d d8 ff ff       	callq  6098 <_ZN5boost5mutex9do_unlockEv@plt>
    887b:	c6 44 24 18 00       	movb   $0x0,0x18(%rsp)
    8880:	eb c1                	jmp    8843 <_ZN5boost6threadC2ERKNS_9function0IvSaINS_13function_baseEEEE+0x163>
    8882:	eb bc                	jmp    8840 <_ZN5boost6threadC2ERKNS_9function0IvSaINS_13function_baseEEEE+0x160>
    8884:	eb ba                	jmp    8840 <_ZN5boost6threadC2ERKNS_9function0IvSaINS_13function_baseEEEE+0x160>
    8886:	bf 10 00 00 00       	mov    $0x10,%edi
    888b:	66 66 90             	xchg   %ax,%ax
    888e:	66 90                	xchg   %ax,%ax
    8890:	e8 43 d5 ff ff       	callq  5dd8 <__cxa_allocate_exception@plt>
    8895:	48 89 c5             	mov    %rax,%rbp
    8898:	48 89 c7             	mov    %rax,%rdi
    889b:	e8 d8 d6 ff ff       	callq  5f78 <_ZN5boost10lock_errorC1Ev@plt>
    88a0:	48 8b 15 31 3a 10 00 	mov    1063473(%rip),%rdx        # 10c2d8 <_DYNAMIC+0x2a0>
    88a7:	48 8b 35 82 39 10 00 	mov    1063298(%rip),%rsi        # 10c230 <_DYNAMIC+0x1f8>
    88ae:	48 89 ef             	mov    %rbp,%rdi
    88b1:	e8 b2 d7 ff ff       	callq  6068 <__cxa_throw@plt>
    88b6:	48 89 c3             	mov    %rax,%rbx
    88b9:	48 89 ef             	mov    %rbp,%rdi
    88bc:	e8 87 d3 ff ff       	callq  5c48 <__cxa_free_exception@plt>
    88c1:	eb a7                	jmp    886a <_ZN5boost6threadC2ERKNS_9function0IvSaINS_13function_baseEEEE+0x18a>
    88c3:	90                   	nop    
    88c4:	66 66 66 90          	xchg   %ax,%ax
    88c8:	66 66 66 90          	xchg   %ax,%ax
    88cc:	66 66 66 90          	xchg   %ax,%ax

00000000000088d0 <_ZN5boost12thread_group13remove_threadEPNS_6threadE>:
    88d0:	53                   	push   %rbx
    88d1:	48 89 fb             	mov    %rdi,%rbx
    88d4:	48 8d 7f 10          	lea    0x10(%rdi),%rdi
    88d8:	48 83 ec 20          	sub    $0x20,%rsp
    88dc:	48 89 74 24 08       	mov    %rsi,0x8(%rsp)
    88e1:	48 89 7c 24 10       	mov    %rdi,0x10(%rsp)
    88e6:	c6 44 24 18 00       	movb   $0x0,0x18(%rsp)
    88eb:	e8 18 d3 ff ff       	callq  5c08 <_ZN5boost5mutex7do_lockEv@plt>
    88f0:	48 8b 33             	mov    (%rbx),%rsi
    88f3:	c6 44 24 18 01       	movb   $0x1,0x18(%rsp)
    88f8:	48 8d 54 24 08       	lea    0x8(%rsp),%rdx
    88fd:	48 39 de             	cmp    %rbx,%rsi
    8900:	48 89 34 24          	mov    %rsi,(%rsp)
    8904:	48 89 f0             	mov    %rsi,%rax
    8907:	74 1f                	je     8928 <_ZN5boost12thread_group13remove_threadEPNS_6threadE+0x58>
    8909:	48 8b 4c 24 08       	mov    0x8(%rsp),%rcx
    890e:	eb 12                	jmp    8922 <_ZN5boost12thread_group13remove_threadEPNS_6threadE+0x52>
    8910:	48 8b 30             	mov    (%rax),%rsi
    8913:	48 39 de             	cmp    %rbx,%rsi
    8916:	48 89 34 24          	mov    %rsi,(%rsp)
    891a:	48 89 f0             	mov    %rsi,%rax
    891d:	74 09                	je     8928 <_ZN5boost12thread_group13remove_threadEPNS_6threadE+0x58>
    891f:	48 8b 0a             	mov    (%rdx),%rcx
    8922:	48 39 4e 10          	cmp    %rcx,0x10(%rsi)
    8926:	75 e8                	jne    8910 <_ZN5boost12thread_group13remove_threadEPNS_6threadE+0x40>
    8928:	48 39 de             	cmp    %rbx,%rsi
    892b:	75 1b                	jne    8948 <_ZN5boost12thread_group13remove_threadEPNS_6threadE+0x78>
    892d:	80 7c 24 18 00       	cmpb   $0x0,0x18(%rsp)
    8932:	75 1e                	jne    8952 <_ZN5boost12thread_group13remove_threadEPNS_6threadE+0x82>
    8934:	48 83 c4 20          	add    $0x20,%rsp
    8938:	5b                   	pop    %rbx
    8939:	c3                   	retq   
    893a:	66 66 90             	xchg   %ax,%ax
    893d:	66 66 90             	xchg   %ax,%ax
    8940:	48 89 c7             	mov    %rax,%rdi
    8943:	e8 f0 d6 ff ff       	callq  6038 <_Unwind_Resume@plt>
    8948:	48 89 df             	mov    %rbx,%rdi
    894b:	e8 b8 d5 ff ff       	callq  5f08 <_ZNSt4listIPN5boost6threadESaIS2_EE5eraseESt14_List_iteratorIS2_E@plt>
    8950:	eb db                	jmp    892d <_ZN5boost12thread_group13remove_threadEPNS_6threadE+0x5d>
    8952:	48 8b 7c 24 10       	mov    0x10(%rsp),%rdi
    8957:	e8 3c d7 ff ff       	callq  6098 <_ZN5boost5mutex9do_unlockEv@plt>
    895c:	c6 44 24 18 00       	movb   $0x0,0x18(%rsp)
    8961:	eb d1                	jmp    8934 <_ZN5boost12thread_group13remove_threadEPNS_6threadE+0x64>
    8963:	80 7c 24 18 00       	cmpb   $0x0,0x18(%rsp)
    8968:	48 89 c3             	mov    %rax,%rbx
    896b:	75 08                	jne    8975 <_ZN5boost12thread_group13remove_threadEPNS_6threadE+0xa5>
    896d:	48 89 df             	mov    %rbx,%rdi
    8970:	e8 c3 d6 ff ff       	callq  6038 <_Unwind_Resume@plt>
    8975:	48 8b 7c 24 10       	mov    0x10(%rsp),%rdi
    897a:	e8 19 d7 ff ff       	callq  6098 <_ZN5boost5mutex9do_unlockEv@plt>
    897f:	c6 44 24 18 00       	movb   $0x0,0x18(%rsp)
    8984:	eb e7                	jmp    896d <_ZN5boost12thread_group13remove_threadEPNS_6threadE+0x9d>
    8986:	eb b8                	jmp    8940 <_ZN5boost12thread_group13remove_threadEPNS_6threadE+0x70>
    8988:	66 66 66 90          	xchg   %ax,%ax
    898c:	66 66 66 90          	xchg   %ax,%ax

0000000000008990 <_ZN5boost12thread_groupD1Ev>:
    8990:	55                   	push   %rbp
    8991:	48 89 fd             	mov    %rdi,%rbp
    8994:	53                   	push   %rbx
    8995:	48 83 ec 08          	sub    $0x8,%rsp
    8999:	48 8b 07             	mov    (%rdi),%rax
    899c:	48 89 c2             	mov    %rax,%rdx
    899f:	48 39 f8             	cmp    %rdi,%rax
    89a2:	48 89 04 24          	mov    %rax,(%rsp)
    89a6:	eb 0d                	jmp    89b5 <_ZN5boost12thread_groupD1Ev+0x25>
    89a8:	48 8b 00             	mov    (%rax),%rax
    89ab:	48 89 04 24          	mov    %rax,(%rsp)
    89af:	48 89 c2             	mov    %rax,%rdx
    89b2:	48 39 e8             	cmp    %rbp,%rax
    89b5:	74 1f                	je     89d6 <_ZN5boost12thread_groupD1Ev+0x46>
    89b7:	48 8b 5a 10          	mov    0x10(%rdx),%rbx
    89bb:	48 85 db             	test   %rbx,%rbx
    89be:	74 e8                	je     89a8 <_ZN5boost12thread_groupD1Ev+0x18>
    89c0:	48 89 df             	mov    %rbx,%rdi
    89c3:	e8 60 d2 ff ff       	callq  5c28 <_ZN5boost6threadD1Ev@plt>
    89c8:	48 89 df             	mov    %rbx,%rdi
    89cb:	e8 e8 d6 ff ff       	callq  60b8 <_ZdlPv@plt>
    89d0:	48 8b 04 24          	mov    (%rsp),%rax
    89d4:	eb d2                	jmp    89a8 <_ZN5boost12thread_groupD1Ev+0x18>
    89d6:	48 8d 7d 10          	lea    0x10(%rbp),%rdi
    89da:	e8 c9 d6 ff ff       	callq  60a8 <_ZN5boost5mutexD1Ev@plt>
    89df:	48 89 ef             	mov    %rbp,%rdi
    89e2:	e8 61 d6 ff ff       	callq  6048 <_ZNSt10_List_baseIPN5boost6threadESaIS2_EE8_M_clearEv@plt>
    89e7:	48 83 c4 08          	add    $0x8,%rsp
    89eb:	5b                   	pop    %rbx
    89ec:	5d                   	pop    %rbp
    89ed:	c3                   	retq   
    89ee:	48 89 c3             	mov    %rax,%rbx
    89f1:	48 89 ef             	mov    %rbp,%rdi
    89f4:	e8 4f d6 ff ff       	callq  6048 <_ZNSt10_List_baseIPN5boost6threadESaIS2_EE8_M_clearEv@plt>
    89f9:	48 89 df             	mov    %rbx,%rdi
    89fc:	e8 37 d6 ff ff       	callq  6038 <_Unwind_Resume@plt>
    8a01:	90                   	nop    
    8a02:	66 66 66 90          	xchg   %ax,%ax
    8a06:	66 66 66 90          	xchg   %ax,%ax
    8a0a:	66 66 90             	xchg   %ax,%ax
    8a0d:	66 66 90             	xchg   %ax,%ax

0000000000008a10 <_ZN5boost12thread_groupD2Ev>:
    8a10:	55                   	push   %rbp
    8a11:	48 89 fd             	mov    %rdi,%rbp
    8a14:	53                   	push   %rbx
    8a15:	48 83 ec 08          	sub    $0x8,%rsp
    8a19:	48 8b 07             	mov    (%rdi),%rax
    8a1c:	48 89 c2             	mov    %rax,%rdx
    8a1f:	48 39 f8             	cmp    %rdi,%rax
    8a22:	48 89 04 24          	mov    %rax,(%rsp)
    8a26:	eb 0d                	jmp    8a35 <_ZN5boost12thread_groupD2Ev+0x25>
    8a28:	48 8b 00             	mov    (%rax),%rax
    8a2b:	48 89 04 24          	mov    %rax,(%rsp)
    8a2f:	48 89 c2             	mov    %rax,%rdx
    8a32:	48 39 e8             	cmp    %rbp,%rax
    8a35:	74 1f                	je     8a56 <_ZN5boost12thread_groupD2Ev+0x46>
    8a37:	48 8b 5a 10          	mov    0x10(%rdx),%rbx
    8a3b:	48 85 db             	test   %rbx,%rbx
    8a3e:	74 e8                	je     8a28 <_ZN5boost12thread_groupD2Ev+0x18>
    8a40:	48 89 df             	mov    %rbx,%rdi
    8a43:	e8 e0 d1 ff ff       	callq  5c28 <_ZN5boost6threadD1Ev@plt>
    8a48:	48 89 df             	mov    %rbx,%rdi
    8a4b:	e8 68 d6 ff ff       	callq  60b8 <_ZdlPv@plt>
    8a50:	48 8b 04 24          	mov    (%rsp),%rax
    8a54:	eb d2                	jmp    8a28 <_ZN5boost12thread_groupD2Ev+0x18>
    8a56:	48 8d 7d 10          	lea    0x10(%rbp),%rdi
    8a5a:	e8 49 d6 ff ff       	callq  60a8 <_ZN5boost5mutexD1Ev@plt>
    8a5f:	48 89 ef             	mov    %rbp,%rdi
    8a62:	e8 e1 d5 ff ff       	callq  6048 <_ZNSt10_List_baseIPN5boost6threadESaIS2_EE8_M_clearEv@plt>
    8a67:	48 83 c4 08          	add    $0x8,%rsp
    8a6b:	5b                   	pop    %rbx
    8a6c:	5d                   	pop    %rbp
    8a6d:	c3                   	retq   
    8a6e:	48 89 c3             	mov    %rax,%rbx
    8a71:	48 89 ef             	mov    %rbp,%rdi
    8a74:	e8 cf d5 ff ff       	callq  6048 <_ZNSt10_List_baseIPN5boost6threadESaIS2_EE8_M_clearEv@plt>
    8a79:	48 89 df             	mov    %rbx,%rdi
    8a7c:	e8 b7 d5 ff ff       	callq  6038 <_Unwind_Resume@plt>
    8a81:	90                   	nop    
    8a82:	66 66 66 90          	xchg   %ax,%ax
    8a86:	66 66 66 90          	xchg   %ax,%ax
    8a8a:	66 66 90             	xchg   %ax,%ax
    8a8d:	66 66 90             	xchg   %ax,%ax

0000000000008a90 <_ZN5boost12thread_group4sizeEv>:
    8a90:	48 8b 07             	mov    (%rdi),%rax
    8a93:	31 d2                	xor    %edx,%edx
    8a95:	48 89 44 24 f8       	mov    %rax,0xfffffffffffffff8(%rsp)
    8a9a:	eb 0f                	jmp    8aab <_ZN5boost12thread_group4sizeEv+0x1b>
    8a9c:	66 66 66 90          	xchg   %ax,%ax
    8aa0:	48 8b 00             	mov    (%rax),%rax
    8aa3:	48 ff c2             	inc    %rdx
    8aa6:	48 89 44 24 f8       	mov    %rax,0xfffffffffffffff8(%rsp)
    8aab:	48 39 f8             	cmp    %rdi,%rax
    8aae:	75 f0                	jne    8aa0 <_ZN5boost12thread_group4sizeEv+0x10>
    8ab0:	89 d0                	mov    %edx,%eax
    8ab2:	c3                   	retq   
    8ab3:	90                   	nop    
    8ab4:	66 66 66 90          	xchg   %ax,%ax
    8ab8:	66 66 66 90          	xchg   %ax,%ax
    8abc:	66 66 66 90          	xchg   %ax,%ax

0000000000008ac0 <_ZN5boost12thread_groupC1Ev>:
    8ac0:	48 89 6c 24 f8       	mov    %rbp,0xfffffffffffffff8(%rsp)
    8ac5:	48 89 fd             	mov    %rdi,%rbp
    8ac8:	48 89 5c 24 f0       	mov    %rbx,0xfffffffffffffff0(%rsp)
    8acd:	48 83 ec 38          	sub    $0x38,%rsp
    8ad1:	48 89 7d 00          	mov    %rdi,0x0(%rbp)
    8ad5:	48 89 7d 08          	mov    %rdi,0x8(%rbp)
    8ad9:	48 8d 7f 10          	lea    0x10(%rdi),%rdi
    8add:	e8 66 d4 ff ff       	callq  5f48 <_ZN5boost5mutexC1Ev@plt>
    8ae2:	48 8b 5c 24 28       	mov    0x28(%rsp),%rbx
    8ae7:	48 8b 6c 24 30       	mov    0x30(%rsp),%rbp
    8aec:	48 83 c4 38          	add    $0x38,%rsp
    8af0:	c3                   	retq   
    8af1:	48 89 c3             	mov    %rax,%rbx
    8af4:	48 89 ef             	mov    %rbp,%rdi
    8af7:	e8 4c d5 ff ff       	callq  6048 <_ZNSt10_List_baseIPN5boost6threadESaIS2_EE8_M_clearEv@plt>
    8afc:	48 89 df             	mov    %rbx,%rdi
    8aff:	e8 34 d5 ff ff       	callq  6038 <_Unwind_Resume@plt>
    8b04:	66 66 66 90          	xchg   %ax,%ax
    8b08:	66 66 66 90          	xchg   %ax,%ax
    8b0c:	66 66 66 90          	xchg   %ax,%ax

0000000000008b10 <_ZN5boost12thread_groupC2Ev>:
    8b10:	48 89 6c 24 f8       	mov    %rbp,0xfffffffffffffff8(%rsp)
    8b15:	48 89 fd             	mov    %rdi,%rbp
    8b18:	48 89 5c 24 f0       	mov    %rbx,0xfffffffffffffff0(%rsp)
    8b1d:	48 83 ec 38          	sub    $0x38,%rsp
    8b21:	48 89 7d 00          	mov    %rdi,0x0(%rbp)
    8b25:	48 89 7d 08          	mov    %rdi,0x8(%rbp)
    8b29:	48 8d 7f 10          	lea    0x10(%rdi),%rdi
    8b2d:	e8 16 d4 ff ff       	callq  5f48 <_ZN5boost5mutexC1Ev@plt>
    8b32:	48 8b 5c 24 28       	mov    0x28(%rsp),%rbx
    8b37:	48 8b 6c 24 30       	mov    0x30(%rsp),%rbp
    8b3c:	48 83 c4 38          	add    $0x38,%rsp
    8b40:	c3                   	retq   
    8b41:	48 89 c3             	mov    %rax,%rbx
    8b44:	48 89 ef             	mov    %rbp,%rdi
    8b47:	e8 fc d4 ff ff       	callq  6048 <_ZNSt10_List_baseIPN5boost6threadESaIS2_EE8_M_clearEv@plt>
    8b4c:	48 89 df             	mov    %rbx,%rdi
    8b4f:	e8 e4 d4 ff ff       	callq  6038 <_Unwind_Resume@plt>
    8b54:	66 66 66 90          	xchg   %ax,%ax
    8b58:	66 66 66 90          	xchg   %ax,%ax
    8b5c:	66 66 66 90          	xchg   %ax,%ax

0000000000008b60 <_ZN5boost12thread_group10add_threadEPNS_6threadE>:
    8b60:	53                   	push   %rbx
    8b61:	48 89 fb             	mov    %rdi,%rbx
    8b64:	48 8d 7f 10          	lea    0x10(%rdi),%rdi
    8b68:	48 83 ec 20          	sub    $0x20,%rsp
    8b6c:	48 89 74 24 08       	mov    %rsi,0x8(%rsp)
    8b71:	48 89 7c 24 10       	mov    %rdi,0x10(%rsp)
    8b76:	c6 44 24 18 00       	movb   $0x0,0x18(%rsp)
    8b7b:	e8 88 d0 ff ff       	callq  5c08 <_ZN5boost5mutex7do_lockEv@plt>
    8b80:	48 8b 03             	mov    (%rbx),%rax
    8b83:	c6 44 24 18 01       	movb   $0x1,0x18(%rsp)
    8b88:	48 8d 4c 24 08       	lea    0x8(%rsp),%rcx
    8b8d:	48 39 d8             	cmp    %rbx,%rax
    8b90:	48 89 04 24          	mov    %rax,(%rsp)
    8b94:	48 89 c2             	mov    %rax,%rdx
    8b97:	74 1f                	je     8bb8 <_ZN5boost12thread_group10add_threadEPNS_6threadE+0x58>
    8b99:	48 8b 74 24 08       	mov    0x8(%rsp),%rsi
    8b9e:	eb 12                	jmp    8bb2 <_ZN5boost12thread_group10add_threadEPNS_6threadE+0x52>
    8ba0:	48 8b 02             	mov    (%rdx),%rax
    8ba3:	48 39 d8             	cmp    %rbx,%rax
    8ba6:	48 89 04 24          	mov    %rax,(%rsp)
    8baa:	48 89 c2             	mov    %rax,%rdx
    8bad:	74 09                	je     8bb8 <_ZN5boost12thread_group10add_threadEPNS_6threadE+0x58>
    8baf:	48 8b 31             	mov    (%rcx),%rsi
    8bb2:	48 39 70 10          	cmp    %rsi,0x10(%rax)
    8bb6:	75 e8                	jne    8ba0 <_ZN5boost12thread_group10add_threadEPNS_6threadE+0x40>
    8bb8:	48 39 d8             	cmp    %rbx,%rax
    8bbb:	74 1b                	je     8bd8 <_ZN5boost12thread_group10add_threadEPNS_6threadE+0x78>
    8bbd:	80 7c 24 18 00       	cmpb   $0x0,0x18(%rsp)
    8bc2:	75 34                	jne    8bf8 <_ZN5boost12thread_group10add_threadEPNS_6threadE+0x98>
    8bc4:	48 83 c4 20          	add    $0x20,%rsp
    8bc8:	5b                   	pop    %rbx
    8bc9:	c3                   	retq   
    8bca:	66 66 90             	xchg   %ax,%ax
    8bcd:	66 66 90             	xchg   %ax,%ax
    8bd0:	48 89 c7             	mov    %rax,%rdi
    8bd3:	e8 60 d4 ff ff       	callq  6038 <_Unwind_Resume@plt>
    8bd8:	bf 18 00 00 00       	mov    $0x18,%edi
    8bdd:	e8 76 d0 ff ff       	callq  5c58 <_Znwm@plt>
    8be2:	48 89 c7             	mov    %rax,%rdi
    8be5:	48 8b 44 24 08       	mov    0x8(%rsp),%rax
    8bea:	48 89 de             	mov    %rbx,%rsi
    8bed:	48 89 47 10          	mov    %rax,0x10(%rdi)
    8bf1:	e8 f2 d2 ff ff       	callq  5ee8 <_ZNSt15_List_node_base4hookEPS_@plt>
    8bf6:	eb c5                	jmp    8bbd <_ZN5boost12thread_group10add_threadEPNS_6threadE+0x5d>
    8bf8:	48 8b 7c 24 10       	mov    0x10(%rsp),%rdi
    8bfd:	e8 96 d4 ff ff       	callq  6098 <_ZN5boost5mutex9do_unlockEv@plt>
    8c02:	c6 44 24 18 00       	movb   $0x0,0x18(%rsp)
    8c07:	eb bb                	jmp    8bc4 <_ZN5boost12thread_group10add_threadEPNS_6threadE+0x64>
    8c09:	80 7c 24 18 00       	cmpb   $0x0,0x18(%rsp)
    8c0e:	48 89 c3             	mov    %rax,%rbx
    8c11:	75 08                	jne    8c1b <_ZN5boost12thread_group10add_threadEPNS_6threadE+0xbb>
    8c13:	48 89 df             	mov    %rbx,%rdi
    8c16:	e8 1d d4 ff ff       	callq  6038 <_Unwind_Resume@plt>
    8c1b:	48 8b 7c 24 10       	mov    0x10(%rsp),%rdi
    8c20:	e8 73 d4 ff ff       	callq  6098 <_ZN5boost5mutex9do_unlockEv@plt>
    8c25:	c6 44 24 18 00       	movb   $0x0,0x18(%rsp)
    8c2a:	eb e7                	jmp    8c13 <_ZN5boost12thread_group10add_threadEPNS_6threadE+0xb3>
    8c2c:	eb a2                	jmp    8bd0 <_ZN5boost12thread_group10add_threadEPNS_6threadE+0x70>
    8c2e:	66 90                	xchg   %ax,%ax

0000000000008c30 <_ZN5boost12thread_group13create_threadERKNS_9function0IvSaINS_13function_baseEEEE>:
    8c30:	48 89 5c 24 e0       	mov    %rbx,0xffffffffffffffe0(%rsp)
    8c35:	48 89 6c 24 e8       	mov    %rbp,0xffffffffffffffe8(%rsp)
    8c3a:	48 89 f3             	mov    %rsi,%rbx
    8c3d:	4c 89 64 24 f0       	mov    %r12,0xfffffffffffffff0(%rsp)
    8c42:	4c 89 6c 24 f8       	mov    %r13,0xfffffffffffffff8(%rsp)
    8c47:	49 89 fc             	mov    %rdi,%r12
    8c4a:	48 83 ec 38          	sub    $0x38,%rsp
    8c4e:	bf 10 00 00 00       	mov    $0x10,%edi
    8c53:	e8 00 d0 ff ff       	callq  5c58 <_Znwm@plt>
    8c58:	48 89 de             	mov    %rbx,%rsi
    8c5b:	48 89 c5             	mov    %rax,%rbp
    8c5e:	48 89 c7             	mov    %rax,%rdi
    8c61:	e8 82 d1 ff ff       	callq  5de8 <_ZN5boost6threadC1ERKNS_9function0IvSaINS_13function_baseEEEE@plt>
    8c66:	48 89 2c 24          	mov    %rbp,(%rsp)
    8c6a:	4c 89 e7             	mov    %r12,%rdi
    8c6d:	48 8b 34 24          	mov    (%rsp),%rsi
    8c71:	e8 d2 d1 ff ff       	callq  5e48 <_ZN5boost12thread_group10add_threadEPNS_6threadE@plt>
    8c76:	48 8b 04 24          	mov    (%rsp),%rax
    8c7a:	48 8b 5c 24 18       	mov    0x18(%rsp),%rbx
    8c7f:	48 8b 6c 24 20       	mov    0x20(%rsp),%rbp
    8c84:	4c 8b 64 24 28       	mov    0x28(%rsp),%r12
    8c89:	4c 8b 6c 24 30       	mov    0x30(%rsp),%r13
    8c8e:	48 83 c4 38          	add    $0x38,%rsp
    8c92:	c3                   	retq   
    8c93:	48 8b 1c 24          	mov    (%rsp),%rbx
    8c97:	48 89 c5             	mov    %rax,%rbp
    8c9a:	48 85 db             	test   %rbx,%rbx
    8c9d:	75 1b                	jne    8cba <_ZN5boost12thread_group13create_threadERKNS_9function0IvSaINS_13function_baseEEEE+0x8a>
    8c9f:	48 89 ef             	mov    %rbp,%rdi
    8ca2:	e8 91 d3 ff ff       	callq  6038 <_Unwind_Resume@plt>
    8ca7:	49 89 c4             	mov    %rax,%r12
    8caa:	48 89 ef             	mov    %rbp,%rdi
    8cad:	e8 06 d4 ff ff       	callq  60b8 <_ZdlPv@plt>
    8cb2:	4c 89 e7             	mov    %r12,%rdi
    8cb5:	e8 7e d3 ff ff       	callq  6038 <_Unwind_Resume@plt>
    8cba:	48 89 df             	mov    %rbx,%rdi
    8cbd:	e8 66 cf ff ff       	callq  5c28 <_ZN5boost6threadD1Ev@plt>
    8cc2:	48 89 df             	mov    %rbx,%rdi
    8cc5:	e8 ee d3 ff ff       	callq  60b8 <_ZdlPv@plt>
    8cca:	eb d3                	jmp    8c9f <_ZN5boost12thread_group13create_threadERKNS_9function0IvSaINS_13function_baseEEEE+0x6f>
    8ccc:	90                   	nop    
    8ccd:	90                   	nop    
    8cce:	90                   	nop    
    8ccf:	90                   	nop    

0000000000008cd0 <_ZN5boost17bad_function_callD1Ev>:
    8cd0:	48 83 ec 08          	sub    $0x8,%rsp
    8cd4:	48 8b 05 6d 35 10 00 	mov    1062253(%rip),%rax        # 10c248 <_DYNAMIC+0x210>
    8cdb:	48 83 c0 10          	add    $0x10,%rax
    8cdf:	48 89 07             	mov    %rax,(%rdi)
    8ce2:	e8 51 d2 ff ff       	callq  5f38 <_ZNSt13runtime_errorD2Ev@plt>
    8ce7:	48 83 c4 08          	add    $0x8,%rsp
    8ceb:	c3                   	retq   
    8cec:	90                   	nop    
    8ced:	90                   	nop    
    8cee:	90                   	nop    
    8cef:	90                   	nop    

0000000000008cf0 <_ZN5boost17bad_function_callD0Ev>:
    8cf0:	48 8b 05 51 35 10 00 	mov    1062225(%rip),%rax        # 10c248 <_DYNAMIC+0x210>
    8cf7:	53                   	push   %rbx
    8cf8:	48 89 fb             	mov    %rdi,%rbx
    8cfb:	48 83 c0 10          	add    $0x10,%rax
    8cff:	48 89 07             	mov    %rax,(%rdi)
    8d02:	e8 31 d2 ff ff       	callq  5f38 <_ZNSt13runtime_errorD2Ev@plt>
    8d07:	48 89 df             	mov    %rbx,%rdi
    8d0a:	e8 a9 d3 ff ff       	callq  60b8 <_ZdlPv@plt>
    8d0f:	5b                   	pop    %rbx
    8d10:	c3                   	retq   
    8d11:	90                   	nop    
    8d12:	90                   	nop    
    8d13:	90                   	nop    
    8d14:	90                   	nop    
    8d15:	90                   	nop    
    8d16:	90                   	nop    
    8d17:	90                   	nop    
    8d18:	90                   	nop    
    8d19:	90                   	nop    
    8d1a:	90                   	nop    
    8d1b:	90                   	nop    
    8d1c:	90                   	nop    
    8d1d:	90                   	nop    
    8d1e:	90                   	nop    
    8d1f:	90                   	nop    

0000000000008d20 <_ZNK5boost9function0IvSaINS_13function_baseEEEclEv>:
    8d20:	48 89 5c 24 e8       	mov    %rbx,0xffffffffffffffe8(%rsp)
    8d25:	48 89 6c 24 f0       	mov    %rbp,0xfffffffffffffff0(%rsp)
    8d2a:	4c 89 64 24 f8       	mov    %r12,0xfffffffffffffff8(%rsp)
    8d2f:	48 83 ec 58          	sub    $0x58,%rsp
    8d33:	48 8b 07             	mov    (%rdi),%rax
    8d36:	48 85 c0             	test   %rax,%rax
    8d39:	0f 85 a1 00 00 00    	jne    8de0 <_ZNK5boost9function0IvSaINS_13function_baseEEEclEv+0xc0>
    8d3f:	48 8d 5c 24 20       	lea    0x20(%rsp),%rbx
    8d44:	4c 8d 64 24 30       	lea    0x30(%rsp),%r12
    8d49:	48 8d 54 24 10       	lea    0x10(%rsp),%rdx
    8d4e:	48 8d 35 c7 13 00 00 	lea    5063(%rip),%rsi        # a11c <_ZTSN5boost17bad_function_callE+0x1c>
    8d55:	48 89 df             	mov    %rbx,%rdi
    8d58:	e8 5b d1 ff ff       	callq  5eb8 <_ZNSsC1EPKcRKSaIcE@plt>
    8d5d:	48 89 de             	mov    %rbx,%rsi
    8d60:	4c 89 e7             	mov    %r12,%rdi
    8d63:	e8 b0 d0 ff ff       	callq  5e18 <_ZNSt13runtime_errorC2ERKSs@plt>
    8d68:	48 8b 5c 24 20       	mov    0x20(%rsp),%rbx
    8d6d:	48 83 eb 18          	sub    $0x18,%rbx
    8d71:	48 39 1d a8 34 10 00 	cmp    %rbx,1062056(%rip)        # 10c220 <_DYNAMIC+0x1e8>
    8d78:	0f 85 f6 00 00 00    	jne    8e74 <_ZNK5boost9function0IvSaINS_13function_baseEEEclEv+0x154>
    8d7e:	48 8b 15 c3 34 10 00 	mov    1062083(%rip),%rdx        # 10c248 <_DYNAMIC+0x210>
    8d85:	bf 10 00 00 00       	mov    $0x10,%edi
    8d8a:	48 83 c2 10          	add    $0x10,%rdx
    8d8e:	49 89 14 24          	mov    %rdx,(%r12)
    8d92:	e8 41 d0 ff ff       	callq  5dd8 <__cxa_allocate_exception@plt>
    8d97:	48 89 c3             	mov    %rax,%rbx
    8d9a:	48 8b 05 c7 34 10 00 	mov    1062087(%rip),%rax        # 10c268 <_DYNAMIC+0x230>
    8da1:	49 8d 74 24 08       	lea    0x8(%r12),%rsi
    8da6:	48 8d 7b 08          	lea    0x8(%rbx),%rdi
    8daa:	48 83 c0 10          	add    $0x10,%rax
    8dae:	48 89 03             	mov    %rax,(%rbx)
    8db1:	e8 b2 d0 ff ff       	callq  5e68 <_ZNSsC1ERKSs@plt>
    8db6:	48 8b 0d 8b 34 10 00 	mov    1062027(%rip),%rcx        # 10c248 <_DYNAMIC+0x210>
    8dbd:	48 8b 15 0c 35 10 00 	mov    1062156(%rip),%rdx        # 10c2d0 <_DYNAMIC+0x298>
    8dc4:	48 89 df             	mov    %rbx,%rdi
    8dc7:	48 8b 35 8a 34 10 00 	mov    1062026(%rip),%rsi        # 10c258 <_DYNAMIC+0x220>
    8dce:	48 83 c1 10          	add    $0x10,%rcx
    8dd2:	48 89 0b             	mov    %rcx,(%rbx)
    8dd5:	e8 8e d2 ff ff       	callq  6068 <__cxa_throw@plt>
    8dda:	66 66 90             	xchg   %ax,%ax
    8ddd:	66 66 90             	xchg   %ax,%ax
    8de0:	48 83 c7 08          	add    $0x8,%rdi
    8de4:	ff 50 08             	callq  *0x8(%rax)
    8de7:	48 8b 5c 24 40       	mov    0x40(%rsp),%rbx
    8dec:	48 8b 6c 24 48       	mov    0x48(%rsp),%rbp
    8df1:	4c 8b 64 24 50       	mov    0x50(%rsp),%r12
    8df6:	48 83 c4 58          	add    $0x58,%rsp
    8dfa:	c3                   	retq   
    8dfb:	66 66 90             	xchg   %ax,%ax
    8dfe:	66 90                	xchg   %ax,%ax
    8e00:	48 89 c3             	mov    %rax,%rbx
    8e03:	48 89 df             	mov    %rbx,%rdi
    8e06:	e8 2d d2 ff ff       	callq  6038 <_Unwind_Resume@plt>
    8e0b:	66 66 90             	xchg   %ax,%ax
    8e0e:	66 90                	xchg   %ax,%ax
    8e10:	48 8b 6c 24 20       	mov    0x20(%rsp),%rbp
    8e15:	48 89 c3             	mov    %rax,%rbx
    8e18:	48 83 ed 18          	sub    $0x18,%rbp
    8e1c:	48 39 2d fd 33 10 00 	cmp    %rbp,1061885(%rip)        # 10c220 <_DYNAMIC+0x1e8>
    8e23:	74 de                	je     8e03 <_ZNK5boost9function0IvSaINS_13function_baseEEEclEv+0xe3>
    8e25:	48 8d 7d 10          	lea    0x10(%rbp),%rdi
    8e29:	be ff ff ff ff       	mov    $0xffffffff,%esi
    8e2e:	e8 e5 d1 ff ff       	callq  6018 <_ZN9__gnu_cxx18__exchange_and_addEPVii@plt>
    8e33:	85 c0                	test   %eax,%eax
    8e35:	7f cc                	jg     8e03 <_ZNK5boost9function0IvSaINS_13function_baseEEEclEv+0xe3>
    8e37:	48 89 e6             	mov    %rsp,%rsi
    8e3a:	48 89 ef             	mov    %rbp,%rdi
    8e3d:	e8 c6 cf ff ff       	callq  5e08 <_ZNSs4_Rep10_M_destroyERKSaIcE@plt>
    8e42:	eb bf                	jmp    8e03 <_ZNK5boost9function0IvSaINS_13function_baseEEEclEv+0xe3>
    8e44:	48 89 c5             	mov    %rax,%rbp
    8e47:	48 8b 1d fa 33 10 00 	mov    1061882(%rip),%rbx        # 10c248 <_DYNAMIC+0x210>
    8e4e:	4c 89 e7             	mov    %r12,%rdi
    8e51:	48 83 c3 10          	add    $0x10,%rbx
    8e55:	48 89 5c 24 30       	mov    %rbx,0x30(%rsp)
    8e5a:	e8 d9 d0 ff ff       	callq  5f38 <_ZNSt13runtime_errorD2Ev@plt>
    8e5f:	48 89 ef             	mov    %rbp,%rdi
    8e62:	e8 d1 d1 ff ff       	callq  6038 <_Unwind_Resume@plt>
    8e67:	48 89 c5             	mov    %rax,%rbp
    8e6a:	48 89 df             	mov    %rbx,%rdi
    8e6d:	e8 f6 d0 ff ff       	callq  5f68 <_ZNSt9exceptionD2Ev@plt>
    8e72:	eb d3                	jmp    8e47 <_ZNK5boost9function0IvSaINS_13function_baseEEEclEv+0x127>
    8e74:	48 8d 7b 10          	lea    0x10(%rbx),%rdi
    8e78:	be ff ff ff ff       	mov    $0xffffffff,%esi
    8e7d:	e8 96 d1 ff ff       	callq  6018 <_ZN9__gnu_cxx18__exchange_and_addEPVii@plt>
    8e82:	85 c0                	test   %eax,%eax
    8e84:	0f 8f f4 fe ff ff    	jg     8d7e <_ZNK5boost9function0IvSaINS_13function_baseEEEclEv+0x5e>
    8e8a:	48 89 e6             	mov    %rsp,%rsi
    8e8d:	48 89 df             	mov    %rbx,%rdi
    8e90:	e8 73 cf ff ff       	callq  5e08 <_ZNSs4_Rep10_M_destroyERKSaIcE@plt>
    8e95:	e9 e4 fe ff ff       	jmpq   8d7e <_ZNK5boost9function0IvSaINS_13function_baseEEEclEv+0x5e>
    8e9a:	66 66 90             	xchg   %ax,%ax
    8e9d:	66 66 90             	xchg   %ax,%ax
    8ea0:	e9 5b ff ff ff       	jmpq   8e00 <_ZNK5boost9function0IvSaINS_13function_baseEEEclEv+0xe0>
    8ea5:	90                   	nop    
    8ea6:	90                   	nop    
    8ea7:	90                   	nop    
    8ea8:	90                   	nop    
    8ea9:	90                   	nop    
    8eaa:	90                   	nop    
    8eab:	90                   	nop    
    8eac:	90                   	nop    
    8ead:	90                   	nop    
    8eae:	90                   	nop    
    8eaf:	90                   	nop    

0000000000008eb0 <_ZNSt4listIPN5boost6threadESaIS2_EE5eraseESt14_List_iteratorIS2_E>:
    8eb0:	48 89 5c 24 f0       	mov    %rbx,0xfffffffffffffff0(%rsp)
    8eb5:	4c 89 64 24 f8       	mov    %r12,0xfffffffffffffff8(%rsp)
    8eba:	48 83 ec 18          	sub    $0x18,%rsp
    8ebe:	4c 8b 26             	mov    (%rsi),%r12
    8ec1:	48 89 f3             	mov    %rsi,%rbx
    8ec4:	48 89 f7             	mov    %rsi,%rdi
    8ec7:	e8 2c cd ff ff       	callq  5bf8 <_ZNSt15_List_node_base6unhookEv@plt>
    8ecc:	48 89 df             	mov    %rbx,%rdi
    8ecf:	e8 e4 d1 ff ff       	callq  60b8 <_ZdlPv@plt>
    8ed4:	4c 89 e0             	mov    %r12,%rax
    8ed7:	48 8b 5c 24 08       	mov    0x8(%rsp),%rbx
    8edc:	4c 8b 64 24 10       	mov    0x10(%rsp),%r12
    8ee1:	48 83 c4 18          	add    $0x18,%rsp
    8ee5:	c3                   	retq   
    8ee6:	90                   	nop    
    8ee7:	90                   	nop    
    8ee8:	90                   	nop    
    8ee9:	90                   	nop    
    8eea:	90                   	nop    
    8eeb:	90                   	nop    
    8eec:	90                   	nop    
    8eed:	90                   	nop    
    8eee:	90                   	nop    
    8eef:	90                   	nop    

0000000000008ef0 <_ZNSt10_List_baseIPN5boost6threadESaIS2_EE8_M_clearEv>:
    8ef0:	55                   	push   %rbp
    8ef1:	48 89 fd             	mov    %rdi,%rbp
    8ef4:	53                   	push   %rbx
    8ef5:	48 83 ec 08          	sub    $0x8,%rsp
    8ef9:	48 8b 1f             	mov    (%rdi),%rbx
    8efc:	eb 0d                	jmp    8f0b <_ZNSt10_List_baseIPN5boost6threadESaIS2_EE8_M_clearEv+0x1b>
    8efe:	66 90                	xchg   %ax,%ax
    8f00:	48 89 df             	mov    %rbx,%rdi
    8f03:	48 8b 1b             	mov    (%rbx),%rbx
    8f06:	e8 ad d1 ff ff       	callq  60b8 <_ZdlPv@plt>
    8f0b:	48 39 eb             	cmp    %rbp,%rbx
    8f0e:	75 f0                	jne    8f00 <_ZNSt10_List_baseIPN5boost6threadESaIS2_EE8_M_clearEv+0x10>
    8f10:	48 83 c4 08          	add    $0x8,%rsp
    8f14:	5b                   	pop    %rbx
    8f15:	5d                   	pop    %rbp
    8f16:	c3                   	retq   
    8f17:	90                   	nop    
    8f18:	90                   	nop    
    8f19:	90                   	nop    
    8f1a:	90                   	nop    
    8f1b:	90                   	nop    
    8f1c:	90                   	nop    
    8f1d:	90                   	nop    
    8f1e:	90                   	nop    
    8f1f:	90                   	nop    

0000000000008f20 <_ZN52_GLOBAL__N_libs_thread_src_tss.cpp_CF4CBC2E_306052D716tss_data_inc_useERN5boost6detail6thread11scoped_lockINS0_5mutexEEE>:
    8f20:	48 8b 05 89 33 10 00 	mov    1061769(%rip),%rax        # 10c2b0 <_DYNAMIC+0x278>
    8f27:	ff 00                	incl   (%rax)
    8f29:	c3                   	retq   
    8f2a:	66 66 90             	xchg   %ax,%ax
    8f2d:	66 66 90             	xchg   %ax,%ax

0000000000008f30 <_ZN52_GLOBAL__N_libs_thread_src_tss.cpp_CF4CBC2E_306052D713init_tss_dataEv>:
    8f30:	48 89 5c 24 f0       	mov    %rbx,0xfffffffffffffff0(%rsp)
    8f35:	48 89 6c 24 f8       	mov    %rbp,0xfffffffffffffff8(%rsp)
    8f3a:	48 83 ec 48          	sub    $0x48,%rsp
    8f3e:	48 8d 5c 24 20       	lea    0x20(%rsp),%rbx
    8f43:	bf 18 00 00 00       	mov    $0x18,%edi
    8f48:	e8 0b cd ff ff       	callq  5c58 <_Znwm@plt>
    8f4d:	48 c7 00 00 00 00 00 	movq   $0x0,(%rax)
    8f54:	48 c7 40 08 00 00 00 	movq   $0x0,0x8(%rax)
    8f5b:	00 
    8f5c:	bf 28 00 00 00       	mov    $0x28,%edi
    8f61:	48 c7 40 10 00 00 00 	movq   $0x0,0x10(%rax)
    8f68:	00 
    8f69:	48 89 03             	mov    %rax,(%rbx)
    8f6c:	e8 e7 cc ff ff       	callq  5c58 <_Znwm@plt>
    8f71:	48 89 c3             	mov    %rax,%rbx
    8f74:	48 89 c7             	mov    %rax,%rdi
    8f77:	e8 cc cf ff ff       	callq  5f48 <_ZN5boost5mutexC1Ev@plt>
    8f7c:	48 89 1c 24          	mov    %rbx,(%rsp)
    8f80:	48 83 3c 24 00       	cmpq   $0x0,(%rsp)
    8f85:	0f 84 e1 00 00 00    	je     906c <_ZN52_GLOBAL__N_libs_thread_src_tss.cpp_CF4CBC2E_306052D713init_tss_dataEv+0x13c>
    8f8b:	48 8b 35 ce 32 10 00 	mov    1061582(%rip),%rsi        # 10c260 <_DYNAMIC+0x228>
    8f92:	48 8b 3d f7 32 10 00 	mov    1061623(%rip),%rdi        # 10c290 <_DYNAMIC+0x258>
    8f99:	e8 ea cb ff ff       	callq  5b88 <pthread_key_create@plt>
    8f9e:	85 c0                	test   %eax,%eax
    8fa0:	75 2e                	jne    8fd0 <_ZN52_GLOBAL__N_libs_thread_src_tss.cpp_CF4CBC2E_306052D713init_tss_dataEv+0xa0>
    8fa2:	48 8b 5c 24 20       	mov    0x20(%rsp),%rbx
    8fa7:	48 8b 14 24          	mov    (%rsp),%rdx
    8fab:	48 8b 0d e6 32 10 00 	mov    1061606(%rip),%rcx        # 10c298 <_DYNAMIC+0x260>
    8fb2:	48 8b 05 27 33 10 00 	mov    1061671(%rip),%rax        # 10c2e0 <_DYNAMIC+0x2a8>
    8fb9:	48 c7 44 24 20 00 00 	movq   $0x0,0x20(%rsp)
    8fc0:	00 00 
    8fc2:	48 c7 04 24 00 00 00 	movq   $0x0,(%rsp)
    8fc9:	00 
    8fca:	48 89 19             	mov    %rbx,(%rcx)
    8fcd:	48 89 10             	mov    %rdx,(%rax)
    8fd0:	48 8b 1c 24          	mov    (%rsp),%rbx
    8fd4:	48 85 db             	test   %rbx,%rbx
    8fd7:	75 7e                	jne    9057 <_ZN52_GLOBAL__N_libs_thread_src_tss.cpp_CF4CBC2E_306052D713init_tss_dataEv+0x127>
    8fd9:	48 8b 5c 24 20       	mov    0x20(%rsp),%rbx
    8fde:	48 85 db             	test   %rbx,%rbx
    8fe1:	74 15                	je     8ff8 <_ZN52_GLOBAL__N_libs_thread_src_tss.cpp_CF4CBC2E_306052D713init_tss_dataEv+0xc8>
    8fe3:	48 8b 3b             	mov    (%rbx),%rdi
    8fe6:	48 85 ff             	test   %rdi,%rdi
    8fe9:	74 05                	je     8ff0 <_ZN52_GLOBAL__N_libs_thread_src_tss.cpp_CF4CBC2E_306052D713init_tss_dataEv+0xc0>
    8feb:	e8 c8 d0 ff ff       	callq  60b8 <_ZdlPv@plt>
    8ff0:	48 89 df             	mov    %rbx,%rdi
    8ff3:	e8 c0 d0 ff ff       	callq  60b8 <_ZdlPv@plt>
    8ff8:	48 8b 5c 24 38       	mov    0x38(%rsp),%rbx
    8ffd:	48 8b 6c 24 40       	mov    0x40(%rsp),%rbp
    9002:	48 83 c4 48          	add    $0x48,%rsp
    9006:	c3                   	retq   
    9007:	48 89 c5             	mov    %rax,%rbp
    900a:	48 8b 5c 24 20       	mov    0x20(%rsp),%rbx
    900f:	48 85 db             	test   %rbx,%rbx
    9012:	75 2c                	jne    9040 <_ZN52_GLOBAL__N_libs_thread_src_tss.cpp_CF4CBC2E_306052D713init_tss_dataEv+0x110>
    9014:	48 89 ef             	mov    %rbp,%rdi
    9017:	e8 1c d0 ff ff       	callq  6038 <_Unwind_Resume@plt>
    901c:	66 66 66 90          	xchg   %ax,%ax
    9020:	48 89 c7             	mov    %rax,%rdi
    9023:	e8 10 d0 ff ff       	callq  6038 <_Unwind_Resume@plt>
    9028:	48 89 c5             	mov    %rax,%rbp
    902b:	48 89 df             	mov    %rbx,%rdi
    902e:	e8 85 d0 ff ff       	callq  60b8 <_ZdlPv@plt>
    9033:	48 8b 5c 24 20       	mov    0x20(%rsp),%rbx
    9038:	48 85 db             	test   %rbx,%rbx
    903b:	74 d7                	je     9014 <_ZN52_GLOBAL__N_libs_thread_src_tss.cpp_CF4CBC2E_306052D713init_tss_dataEv+0xe4>
    903d:	66 66 90             	xchg   %ax,%ax
    9040:	48 8b 3b             	mov    (%rbx),%rdi
    9043:	48 85 ff             	test   %rdi,%rdi
    9046:	74 05                	je     904d <_ZN52_GLOBAL__N_libs_thread_src_tss.cpp_CF4CBC2E_306052D713init_tss_dataEv+0x11d>
    9048:	e8 6b d0 ff ff       	callq  60b8 <_ZdlPv@plt>
    904d:	48 89 df             	mov    %rbx,%rdi
    9050:	e8 63 d0 ff ff       	callq  60b8 <_ZdlPv@plt>
    9055:	eb bd                	jmp    9014 <_ZN52_GLOBAL__N_libs_thread_src_tss.cpp_CF4CBC2E_306052D713init_tss_dataEv+0xe4>
    9057:	48 89 df             	mov    %rbx,%rdi
    905a:	e8 49 d0 ff ff       	callq  60a8 <_ZN5boost5mutexD1Ev@plt>
    905f:	48 89 df             	mov    %rbx,%rdi
    9062:	e8 51 d0 ff ff       	callq  60b8 <_ZdlPv@plt>
    9067:	e9 6d ff ff ff       	jmpq   8fd9 <_ZN52_GLOBAL__N_libs_thread_src_tss.cpp_CF4CBC2E_306052D713init_tss_dataEv+0xa9>
    906c:	bf 10 00 00 00       	mov    $0x10,%edi
    9071:	e8 62 cd ff ff       	callq  5dd8 <__cxa_allocate_exception@plt>
    9076:	48 89 c3             	mov    %rax,%rbx
    9079:	48 89 c7             	mov    %rax,%rdi
    907c:	e8 57 d0 ff ff       	callq  60d8 <_ZN5boost21thread_resource_errorC1Ev@plt>
    9081:	48 8b 15 90 31 10 00 	mov    1061264(%rip),%rdx        # 10c218 <_DYNAMIC+0x1e0>
    9088:	48 8b 35 29 32 10 00 	mov    1061417(%rip),%rsi        # 10c2b8 <_DYNAMIC+0x280>
    908f:	48 89 df             	mov    %rbx,%rdi
    9092:	e8 d1 cf ff ff       	callq  6068 <__cxa_throw@plt>
    9097:	48 89 c5             	mov    %rax,%rbp
    909a:	48 8b 1c 24          	mov    (%rsp),%rbx
    909e:	48 85 db             	test   %rbx,%rbx
    90a1:	0f 84 63 ff ff ff    	je     900a <_ZN52_GLOBAL__N_libs_thread_src_tss.cpp_CF4CBC2E_306052D713init_tss_dataEv+0xda>
    90a7:	48 89 df             	mov    %rbx,%rdi
    90aa:	e8 f9 cf ff ff       	callq  60a8 <_ZN5boost5mutexD1Ev@plt>
    90af:	e9 77 ff ff ff       	jmpq   902b <_ZN52_GLOBAL__N_libs_thread_src_tss.cpp_CF4CBC2E_306052D713init_tss_dataEv+0xfb>
    90b4:	48 89 c5             	mov    %rax,%rbp
    90b7:	48 89 df             	mov    %rbx,%rdi
    90ba:	e8 89 cb ff ff       	callq  5c48 <__cxa_free_exception@plt>
    90bf:	90                   	nop    
    90c0:	eb d8                	jmp    909a <_ZN52_GLOBAL__N_libs_thread_src_tss.cpp_CF4CBC2E_306052D713init_tss_dataEv+0x16a>
    90c2:	66 66 66 90          	xchg   %ax,%ax
    90c6:	66 66 66 90          	xchg   %ax,%ax
    90ca:	66 66 90             	xchg   %ax,%ax
    90cd:	66 66 90             	xchg   %ax,%ax

00000000000090d0 <_ZN52_GLOBAL__N_libs_thread_src_tss.cpp_CF4CBC2E_306052D716tss_data_dec_useERN5boost6detail6thread11scoped_lockINS0_5mutexEEE>:
    90d0:	41 54                	push   %r12
    90d2:	48 8b 05 d7 31 10 00 	mov    1061335(%rip),%rax        # 10c2b0 <_DYNAMIC+0x278>
    90d9:	49 89 fc             	mov    %rdi,%r12
    90dc:	55                   	push   %rbp
    90dd:	53                   	push   %rbx
    90de:	8b 10                	mov    (%rax),%edx
    90e0:	ff ca                	dec    %edx
    90e2:	85 d2                	test   %edx,%edx
    90e4:	89 10                	mov    %edx,(%rax)
    90e6:	0f 85 10 01 00 00    	jne    91fc <_ZN52_GLOBAL__N_libs_thread_src_tss.cpp_CF4CBC2E_306052D716tss_data_dec_useERN5boost6detail6thread11scoped_lockINS0_5mutexEEE+0x12c>
    90ec:	31 ed                	xor    %ebp,%ebp
    90ee:	48 8b 15 a3 31 10 00 	mov    1061283(%rip),%rdx        # 10c298 <_DYNAMIC+0x260>
    90f5:	48 8b 1a             	mov    (%rdx),%rbx
    90f8:	48 8b 4b 08          	mov    0x8(%rbx),%rcx
    90fc:	48 8b 3b             	mov    (%rbx),%rdi
    90ff:	48 29 f9             	sub    %rdi,%rcx
    9102:	48 c1 f9 03          	sar    $0x3,%rcx
    9106:	48 39 e9             	cmp    %rbp,%rcx
    9109:	76 55                	jbe    9160 <_ZN52_GLOBAL__N_libs_thread_src_tss.cpp_CF4CBC2E_306052D716tss_data_dec_useERN5boost6detail6thread11scoped_lockINS0_5mutexEEE+0x90>
    910b:	66 66 90             	xchg   %ax,%ax
    910e:	66 90                	xchg   %ax,%ax
    9110:	48 8b 1c ef          	mov    (%rdi,%rbp,8),%rbx
    9114:	48 85 db             	test   %rbx,%rbx
    9117:	74 2e                	je     9147 <_ZN52_GLOBAL__N_libs_thread_src_tss.cpp_CF4CBC2E_306052D716tss_data_dec_useERN5boost6detail6thread11scoped_lockINS0_5mutexEEE+0x77>
    9119:	48 8b 03             	mov    (%rbx),%rax
    911c:	48 85 c0             	test   %rax,%rax
    911f:	74 17                	je     9138 <_ZN52_GLOBAL__N_libs_thread_src_tss.cpp_CF4CBC2E_306052D716tss_data_dec_useERN5boost6detail6thread11scoped_lockINS0_5mutexEEE+0x68>
    9121:	48 8b 00             	mov    (%rax),%rax
    9124:	48 8d 7b 08          	lea    0x8(%rbx),%rdi
    9128:	48 85 c0             	test   %rax,%rax
    912b:	0f 85 d0 00 00 00    	jne    9201 <_ZN52_GLOBAL__N_libs_thread_src_tss.cpp_CF4CBC2E_306052D716tss_data_dec_useERN5boost6detail6thread11scoped_lockINS0_5mutexEEE+0x131>
    9131:	48 c7 03 00 00 00 00 	movq   $0x0,(%rbx)
    9138:	48 89 df             	mov    %rbx,%rdi
    913b:	e8 78 cf ff ff       	callq  60b8 <_ZdlPv@plt>
    9140:	48 8b 15 51 31 10 00 	mov    1061201(%rip),%rdx        # 10c298 <_DYNAMIC+0x260>
    9147:	48 8b 1a             	mov    (%rdx),%rbx
    914a:	48 ff c5             	inc    %rbp
    914d:	48 8b 4b 08          	mov    0x8(%rbx),%rcx
    9151:	48 8b 3b             	mov    (%rbx),%rdi
    9154:	48 29 f9             	sub    %rdi,%rcx
    9157:	48 c1 f9 03          	sar    $0x3,%rcx
    915b:	48 39 e9             	cmp    %rbp,%rcx
    915e:	77 b0                	ja     9110 <_ZN52_GLOBAL__N_libs_thread_src_tss.cpp_CF4CBC2E_306052D716tss_data_dec_useERN5boost6detail6thread11scoped_lockINS0_5mutexEEE+0x40>
    9160:	48 85 db             	test   %rbx,%rbx
    9163:	74 18                	je     917d <_ZN52_GLOBAL__N_libs_thread_src_tss.cpp_CF4CBC2E_306052D716tss_data_dec_useERN5boost6detail6thread11scoped_lockINS0_5mutexEEE+0xad>
    9165:	48 85 ff             	test   %rdi,%rdi
    9168:	0f 85 b5 00 00 00    	jne    9223 <_ZN52_GLOBAL__N_libs_thread_src_tss.cpp_CF4CBC2E_306052D716tss_data_dec_useERN5boost6detail6thread11scoped_lockINS0_5mutexEEE+0x153>
    916e:	48 89 df             	mov    %rbx,%rdi
    9171:	e8 42 cf ff ff       	callq  60b8 <_ZdlPv@plt>
    9176:	48 8b 15 1b 31 10 00 	mov    1061147(%rip),%rdx        # 10c298 <_DYNAMIC+0x260>
    917d:	41 80 7c 24 08 00    	cmpb   $0x0,0x8(%r12)
    9183:	48 c7 02 00 00 00 00 	movq   $0x0,(%rdx)
    918a:	75 2b                	jne    91b7 <_ZN52_GLOBAL__N_libs_thread_src_tss.cpp_CF4CBC2E_306052D716tss_data_dec_useERN5boost6detail6thread11scoped_lockINS0_5mutexEEE+0xe7>
    918c:	bf 10 00 00 00       	mov    $0x10,%edi
    9191:	e8 42 cc ff ff       	callq  5dd8 <__cxa_allocate_exception@plt>
    9196:	48 89 c5             	mov    %rax,%rbp
    9199:	48 89 c7             	mov    %rax,%rdi
    919c:	e8 d7 cd ff ff       	callq  5f78 <_ZN5boost10lock_errorC1Ev@plt>
    91a1:	48 8b 15 30 31 10 00 	mov    1061168(%rip),%rdx        # 10c2d8 <_DYNAMIC+0x2a0>
    91a8:	48 8b 35 81 30 10 00 	mov    1060993(%rip),%rsi        # 10c230 <_DYNAMIC+0x1f8>
    91af:	48 89 ef             	mov    %rbp,%rdi
    91b2:	e8 b1 ce ff ff       	callq  6068 <__cxa_throw@plt>
    91b7:	49 8b 3c 24          	mov    (%r12),%rdi
    91bb:	e8 d8 ce ff ff       	callq  6098 <_ZN5boost5mutex9do_unlockEv@plt>
    91c0:	48 8b 2d 19 31 10 00 	mov    1061145(%rip),%rbp        # 10c2e0 <_DYNAMIC+0x2a8>
    91c7:	41 c6 44 24 08 00    	movb   $0x0,0x8(%r12)
    91cd:	48 8b 5d 00          	mov    0x0(%rbp),%rbx
    91d1:	48 85 db             	test   %rbx,%rbx
    91d4:	74 10                	je     91e6 <_ZN52_GLOBAL__N_libs_thread_src_tss.cpp_CF4CBC2E_306052D716tss_data_dec_useERN5boost6detail6thread11scoped_lockINS0_5mutexEEE+0x116>
    91d6:	48 89 df             	mov    %rbx,%rdi
    91d9:	e8 ca ce ff ff       	callq  60a8 <_ZN5boost5mutexD1Ev@plt>
    91de:	48 89 df             	mov    %rbx,%rdi
    91e1:	e8 d2 ce ff ff       	callq  60b8 <_ZdlPv@plt>
    91e6:	48 8b 35 a3 30 10 00 	mov    1061027(%rip),%rsi        # 10c290 <_DYNAMIC+0x258>
    91ed:	48 c7 45 00 00 00 00 	movq   $0x0,0x0(%rbp)
    91f4:	00 
    91f5:	8b 3e                	mov    (%rsi),%edi
    91f7:	e8 cc cc ff ff       	callq  5ec8 <pthread_key_delete@plt>
    91fc:	5b                   	pop    %rbx
    91fd:	5d                   	pop    %rbp
    91fe:	41 5c                	pop    %r12
    9200:	c3                   	retq   
    9201:	ba 01 00 00 00       	mov    $0x1,%edx
    9206:	48 89 fe             	mov    %rdi,%rsi
    9209:	ff d0                	callq  *%rax
    920b:	e9 21 ff ff ff       	jmpq   9131 <_ZN52_GLOBAL__N_libs_thread_src_tss.cpp_CF4CBC2E_306052D716tss_data_dec_useERN5boost6detail6thread11scoped_lockINS0_5mutexEEE+0x61>
    9210:	48 89 c3             	mov    %rax,%rbx
    9213:	48 89 ef             	mov    %rbp,%rdi
    9216:	e8 2d ca ff ff       	callq  5c48 <__cxa_free_exception@plt>
    921b:	48 89 df             	mov    %rbx,%rdi
    921e:	e8 15 ce ff ff       	callq  6038 <_Unwind_Resume@plt>
    9223:	e8 90 ce ff ff       	callq  60b8 <_ZdlPv@plt>
    9228:	e9 41 ff ff ff       	jmpq   916e <_ZN52_GLOBAL__N_libs_thread_src_tss.cpp_CF4CBC2E_306052D716tss_data_dec_useERN5boost6detail6thread11scoped_lockINS0_5mutexEEE+0x9e>
    922d:	90                   	nop    
    922e:	66 90                	xchg   %ax,%ax

0000000000009230 <_ZN5boost6detail3tss7cleanupEPv>:
    9230:	48 89 5c 24 f0       	mov    %rbx,0xfffffffffffffff0(%rsp)
    9235:	48 89 6c 24 f8       	mov    %rbp,0xfffffffffffffff8(%rsp)
    923a:	48 83 ec 28          	sub    $0x28,%rsp
    923e:	48 8b 05 9b 30 10 00 	mov    1061019(%rip),%rax        # 10c2e0 <_DYNAMIC+0x2a8>
    9245:	48 89 fb             	mov    %rdi,%rbx
    9248:	48 89 f5             	mov    %rsi,%rbp
    924b:	c6 44 24 08 00       	movb   $0x0,0x8(%rsp)
    9250:	48 8b 38             	mov    (%rax),%rdi
    9253:	48 89 3c 24          	mov    %rdi,(%rsp)
    9257:	e8 ac c9 ff ff       	callq  5c08 <_ZN5boost5mutex7do_lockEv@plt>
    925c:	48 8b 35 35 30 10 00 	mov    1060917(%rip),%rsi        # 10c298 <_DYNAMIC+0x260>
    9263:	8b 0b                	mov    (%rbx),%ecx
    9265:	c6 44 24 08 01       	movb   $0x1,0x8(%rsp)
    926a:	48 8b 16             	mov    (%rsi),%rdx
    926d:	48 89 ee             	mov    %rbp,%rsi
    9270:	48 c1 e1 03          	shl    $0x3,%rcx
    9274:	48 03 0a             	add    (%rdx),%rcx
    9277:	48 8b 39             	mov    (%rcx),%rdi
    927a:	e8 59 cd ff ff       	callq  5fd8 <_ZNK5boost9function1IvPvSaINS_13function_baseEEEclES1_@plt>
    927f:	80 7c 24 08 00       	cmpb   $0x0,0x8(%rsp)
    9284:	75 39                	jne    92bf <_ZN5boost6detail3tss7cleanupEPv+0x8f>
    9286:	48 8b 5c 24 18       	mov    0x18(%rsp),%rbx
    928b:	48 8b 6c 24 20       	mov    0x20(%rsp),%rbp
    9290:	48 83 c4 28          	add    $0x28,%rsp
    9294:	c3                   	retq   
    9295:	80 7c 24 08 00       	cmpb   $0x0,0x8(%rsp)
    929a:	48 89 c3             	mov    %rax,%rbx
    929d:	75 10                	jne    92af <_ZN5boost6detail3tss7cleanupEPv+0x7f>
    929f:	48 89 df             	mov    %rbx,%rdi
    92a2:	e8 91 cd ff ff       	callq  6038 <_Unwind_Resume@plt>
    92a7:	48 89 c7             	mov    %rax,%rdi
    92aa:	e8 89 cd ff ff       	callq  6038 <_Unwind_Resume@plt>
    92af:	48 8b 3c 24          	mov    (%rsp),%rdi
    92b3:	e8 e0 cd ff ff       	callq  6098 <_ZN5boost5mutex9do_unlockEv@plt>
    92b8:	c6 44 24 08 00       	movb   $0x0,0x8(%rsp)
    92bd:	eb e0                	jmp    929f <_ZN5boost6detail3tss7cleanupEPv+0x6f>
    92bf:	48 8b 3c 24          	mov    (%rsp),%rdi
    92c3:	e8 d0 cd ff ff       	callq  6098 <_ZN5boost5mutex9do_unlockEv@plt>
    92c8:	c6 44 24 08 00       	movb   $0x0,0x8(%rsp)
    92cd:	eb b7                	jmp    9286 <_ZN5boost6detail3tss7cleanupEPv+0x56>
    92cf:	90                   	nop    
    92d0:	eb d5                	jmp    92a7 <_ZN5boost6detail3tss7cleanupEPv+0x77>
    92d2:	66 66 66 90          	xchg   %ax,%ax
    92d6:	66 66 66 90          	xchg   %ax,%ax
    92da:	66 66 90             	xchg   %ax,%ax
    92dd:	66 66 90             	xchg   %ax,%ax

00000000000092e0 <_ZN5boost6detail3tssD1Ev>:
    92e0:	53                   	push   %rbx
    92e1:	48 83 ec 10          	sub    $0x10,%rsp
    92e5:	48 8b 05 f4 2f 10 00 	mov    1060852(%rip),%rax        # 10c2e0 <_DYNAMIC+0x2a8>
    92ec:	c6 44 24 08 00       	movb   $0x0,0x8(%rsp)
    92f1:	48 8b 38             	mov    (%rax),%rdi
    92f4:	48 89 3c 24          	mov    %rdi,(%rsp)
    92f8:	e8 0b c9 ff ff       	callq  5c08 <_ZN5boost5mutex7do_lockEv@plt>
    92fd:	c6 44 24 08 01       	movb   $0x1,0x8(%rsp)
    9302:	48 89 e7             	mov    %rsp,%rdi
    9305:	e8 be c8 ff ff       	callq  5bc8 <_ZN52_GLOBAL__N_libs_thread_src_tss.cpp_CF4CBC2E_306052D716tss_data_dec_useERN5boost6detail6thread11scoped_lockINS0_5mutexEEE@plt>
    930a:	80 7c 24 08 00       	cmpb   $0x0,0x8(%rsp)
    930f:	75 24                	jne    9335 <_ZN5boost6detail3tssD1Ev+0x55>
    9311:	48 83 c4 10          	add    $0x10,%rsp
    9315:	5b                   	pop    %rbx
    9316:	c3                   	retq   
    9317:	80 7c 24 08 00       	cmpb   $0x0,0x8(%rsp)
    931c:	48 89 c3             	mov    %rax,%rbx
    931f:	75 24                	jne    9345 <_ZN5boost6detail3tssD1Ev+0x65>
    9321:	48 89 df             	mov    %rbx,%rdi
    9324:	e8 0f cd ff ff       	callq  6038 <_Unwind_Resume@plt>
    9329:	66 66 66 90          	xchg   %ax,%ax
    932d:	66 66 90             	xchg   %ax,%ax
    9330:	48 89 c3             	mov    %rax,%rbx
    9333:	eb ec                	jmp    9321 <_ZN5boost6detail3tssD1Ev+0x41>
    9335:	48 8b 3c 24          	mov    (%rsp),%rdi
    9339:	e8 5a cd ff ff       	callq  6098 <_ZN5boost5mutex9do_unlockEv@plt>
    933e:	c6 44 24 08 00       	movb   $0x0,0x8(%rsp)
    9343:	eb cc                	jmp    9311 <_ZN5boost6detail3tssD1Ev+0x31>
    9345:	48 8b 3c 24          	mov    (%rsp),%rdi
    9349:	e8 4a cd ff ff       	callq  6098 <_ZN5boost5mutex9do_unlockEv@plt>
    934e:	c6 44 24 08 00       	movb   $0x0,0x8(%rsp)
    9353:	eb cc                	jmp    9321 <_ZN5boost6detail3tssD1Ev+0x41>
    9355:	eb d9                	jmp    9330 <_ZN5boost6detail3tssD1Ev+0x50>
    9357:	90                   	nop    
    9358:	66 66 66 90          	xchg   %ax,%ax
    935c:	66 66 66 90          	xchg   %ax,%ax

0000000000009360 <_ZN5boost6detail3tssD2Ev>:
    9360:	53                   	push   %rbx
    9361:	48 83 ec 10          	sub    $0x10,%rsp
    9365:	48 8b 05 74 2f 10 00 	mov    1060724(%rip),%rax        # 10c2e0 <_DYNAMIC+0x2a8>
    936c:	c6 44 24 08 00       	movb   $0x0,0x8(%rsp)
    9371:	48 8b 38             	mov    (%rax),%rdi
    9374:	48 89 3c 24          	mov    %rdi,(%rsp)
    9378:	e8 8b c8 ff ff       	callq  5c08 <_ZN5boost5mutex7do_lockEv@plt>
    937d:	c6 44 24 08 01       	movb   $0x1,0x8(%rsp)
    9382:	48 89 e7             	mov    %rsp,%rdi
    9385:	e8 3e c8 ff ff       	callq  5bc8 <_ZN52_GLOBAL__N_libs_thread_src_tss.cpp_CF4CBC2E_306052D716tss_data_dec_useERN5boost6detail6thread11scoped_lockINS0_5mutexEEE@plt>
    938a:	80 7c 24 08 00       	cmpb   $0x0,0x8(%rsp)
    938f:	75 24                	jne    93b5 <_ZN5boost6detail3tssD2Ev+0x55>
    9391:	48 83 c4 10          	add    $0x10,%rsp
    9395:	5b                   	pop    %rbx
    9396:	c3                   	retq   
    9397:	80 7c 24 08 00       	cmpb   $0x0,0x8(%rsp)
    939c:	48 89 c3             	mov    %rax,%rbx
    939f:	75 24                	jne    93c5 <_ZN5boost6detail3tssD2Ev+0x65>
    93a1:	48 89 df             	mov    %rbx,%rdi
    93a4:	e8 8f cc ff ff       	callq  6038 <_Unwind_Resume@plt>
    93a9:	66 66 66 90          	xchg   %ax,%ax
    93ad:	66 66 90             	xchg   %ax,%ax
    93b0:	48 89 c3             	mov    %rax,%rbx
    93b3:	eb ec                	jmp    93a1 <_ZN5boost6detail3tssD2Ev+0x41>
    93b5:	48 8b 3c 24          	mov    (%rsp),%rdi
    93b9:	e8 da cc ff ff       	callq  6098 <_ZN5boost5mutex9do_unlockEv@plt>
    93be:	c6 44 24 08 00       	movb   $0x0,0x8(%rsp)
    93c3:	eb cc                	jmp    9391 <_ZN5boost6detail3tssD2Ev+0x31>
    93c5:	48 8b 3c 24          	mov    (%rsp),%rdi
    93c9:	e8 ca cc ff ff       	callq  6098 <_ZN5boost5mutex9do_unlockEv@plt>
    93ce:	c6 44 24 08 00       	movb   $0x0,0x8(%rsp)
    93d3:	eb cc                	jmp    93a1 <_ZN5boost6detail3tssD2Ev+0x41>
    93d5:	eb d9                	jmp    93b0 <_ZN5boost6detail3tssD2Ev+0x50>
    93d7:	90                   	nop    
    93d8:	66 66 66 90          	xchg   %ax,%ax
    93dc:	66 66 66 90          	xchg   %ax,%ax

00000000000093e0 <_ZN52_GLOBAL__N_libs_thread_src_tss.cpp_CF4CBC2E_306052D79get_slotsEb>:
    93e0:	48 89 5c 24 f0       	mov    %rbx,0xfffffffffffffff0(%rsp)
    93e5:	48 89 6c 24 f8       	mov    %rbp,0xfffffffffffffff8(%rsp)
    93ea:	48 83 ec 48          	sub    $0x48,%rsp
    93ee:	48 8b 05 9b 2e 10 00 	mov    1060507(%rip),%rax        # 10c290 <_DYNAMIC+0x258>
    93f5:	89 fb                	mov    %edi,%ebx
    93f7:	8b 38                	mov    (%rax),%edi
    93f9:	e8 0a cc ff ff       	callq  6008 <pthread_getspecific@plt>
    93fe:	48 85 c0             	test   %rax,%rax
    9401:	74 0f                	je     9412 <_ZN52_GLOBAL__N_libs_thread_src_tss.cpp_CF4CBC2E_306052D79get_slotsEb+0x32>
    9403:	48 8b 5c 24 38       	mov    0x38(%rsp),%rbx
    9408:	48 8b 6c 24 40       	mov    0x40(%rsp),%rbp
    940d:	48 83 c4 48          	add    $0x48,%rsp
    9411:	c3                   	retq   
    9412:	84 db                	test   %bl,%bl
    9414:	74 ed                	je     9403 <_ZN52_GLOBAL__N_libs_thread_src_tss.cpp_CF4CBC2E_306052D79get_slotsEb+0x23>
    9416:	48 8d 5c 24 20       	lea    0x20(%rsp),%rbx
    941b:	bf 18 00 00 00       	mov    $0x18,%edi
    9420:	e8 33 c8 ff ff       	callq  5c58 <_Znwm@plt>
    9425:	48 8b 15 64 2e 10 00 	mov    1060452(%rip),%rdx        # 10c290 <_DYNAMIC+0x258>
    942c:	48 89 03             	mov    %rax,(%rbx)
    942f:	48 8b 74 24 20       	mov    0x20(%rsp),%rsi
    9434:	48 c7 00 00 00 00 00 	movq   $0x0,(%rax)
    943b:	48 c7 40 08 00 00 00 	movq   $0x0,0x8(%rax)
    9442:	00 
    9443:	48 c7 40 10 00 00 00 	movq   $0x0,0x10(%rax)
    944a:	00 
    944b:	8b 3a                	mov    (%rdx),%edi
    944d:	e8 86 c8 ff ff       	callq  5cd8 <pthread_setspecific@plt>
    9452:	85 c0                	test   %eax,%eax
    9454:	75 5c                	jne    94b2 <_ZN52_GLOBAL__N_libs_thread_src_tss.cpp_CF4CBC2E_306052D79get_slotsEb+0xd2>
    9456:	48 8b 0d 83 2e 10 00 	mov    1060483(%rip),%rcx        # 10c2e0 <_DYNAMIC+0x2a8>
    945d:	c6 44 24 08 00       	movb   $0x0,0x8(%rsp)
    9462:	48 8b 39             	mov    (%rcx),%rdi
    9465:	48 89 3c 24          	mov    %rdi,(%rsp)
    9469:	e8 9a c7 ff ff       	callq  5c08 <_ZN5boost5mutex7do_lockEv@plt>
    946e:	48 89 e7             	mov    %rsp,%rdi
    9471:	c6 44 24 08 01       	movb   $0x1,0x8(%rsp)
    9476:	e8 ad c9 ff ff       	callq  5e28 <_ZN52_GLOBAL__N_libs_thread_src_tss.cpp_CF4CBC2E_306052D716tss_data_inc_useERN5boost6detail6thread11scoped_lockINS0_5mutexEEE@plt>
    947b:	80 7c 24 08 00       	cmpb   $0x0,0x8(%rsp)
    9480:	75 70                	jne    94f2 <_ZN52_GLOBAL__N_libs_thread_src_tss.cpp_CF4CBC2E_306052D79get_slotsEb+0x112>
    9482:	48 8b 44 24 20       	mov    0x20(%rsp),%rax
    9487:	48 c7 44 24 20 00 00 	movq   $0x0,0x20(%rsp)
    948e:	00 00 
    9490:	e9 6e ff ff ff       	jmpq   9403 <_ZN52_GLOBAL__N_libs_thread_src_tss.cpp_CF4CBC2E_306052D79get_slotsEb+0x23>
    9495:	48 89 c7             	mov    %rax,%rdi
    9498:	e8 9b cb ff ff       	callq  6038 <_Unwind_Resume@plt>
    949d:	48 8b 5c 24 20       	mov    0x20(%rsp),%rbx
    94a2:	48 89 c5             	mov    %rax,%rbp
    94a5:	48 85 db             	test   %rbx,%rbx
    94a8:	75 2e                	jne    94d8 <_ZN52_GLOBAL__N_libs_thread_src_tss.cpp_CF4CBC2E_306052D79get_slotsEb+0xf8>
    94aa:	48 89 ef             	mov    %rbp,%rdi
    94ad:	e8 86 cb ff ff       	callq  6038 <_Unwind_Resume@plt>
    94b2:	48 8b 5c 24 20       	mov    0x20(%rsp),%rbx
    94b7:	48 85 db             	test   %rbx,%rbx
    94ba:	74 15                	je     94d1 <_ZN52_GLOBAL__N_libs_thread_src_tss.cpp_CF4CBC2E_306052D79get_slotsEb+0xf1>
    94bc:	48 8b 3b             	mov    (%rbx),%rdi
    94bf:	48 85 ff             	test   %rdi,%rdi
    94c2:	74 05                	je     94c9 <_ZN52_GLOBAL__N_libs_thread_src_tss.cpp_CF4CBC2E_306052D79get_slotsEb+0xe9>
    94c4:	e8 ef cb ff ff       	callq  60b8 <_ZdlPv@plt>
    94c9:	48 89 df             	mov    %rbx,%rdi
    94cc:	e8 e7 cb ff ff       	callq  60b8 <_ZdlPv@plt>
    94d1:	31 c0                	xor    %eax,%eax
    94d3:	e9 2b ff ff ff       	jmpq   9403 <_ZN52_GLOBAL__N_libs_thread_src_tss.cpp_CF4CBC2E_306052D79get_slotsEb+0x23>
    94d8:	48 8b 3b             	mov    (%rbx),%rdi
    94db:	48 85 ff             	test   %rdi,%rdi
    94de:	74 05                	je     94e5 <_ZN52_GLOBAL__N_libs_thread_src_tss.cpp_CF4CBC2E_306052D79get_slotsEb+0x105>
    94e0:	e8 d3 cb ff ff       	callq  60b8 <_ZdlPv@plt>
    94e5:	48 89 df             	mov    %rbx,%rdi
    94e8:	e8 cb cb ff ff       	callq  60b8 <_ZdlPv@plt>
    94ed:	66 66 90             	xchg   %ax,%ax
    94f0:	eb b8                	jmp    94aa <_ZN52_GLOBAL__N_libs_thread_src_tss.cpp_CF4CBC2E_306052D79get_slotsEb+0xca>
    94f2:	48 8b 3c 24          	mov    (%rsp),%rdi
    94f6:	e8 9d cb ff ff       	callq  6098 <_ZN5boost5mutex9do_unlockEv@plt>
    94fb:	c6 44 24 08 00       	movb   $0x0,0x8(%rsp)
    9500:	eb 80                	jmp    9482 <_ZN52_GLOBAL__N_libs_thread_src_tss.cpp_CF4CBC2E_306052D79get_slotsEb+0xa2>
    9502:	66 66 66 90          	xchg   %ax,%ax
    9506:	66 66 66 90          	xchg   %ax,%ax
    950a:	66 66 90             	xchg   %ax,%ax
    950d:	66 66 90             	xchg   %ax,%ax

